(lp0
(dp1
S'C_given_C'
p2
F0.9992003198720512
sS'T_given_C'
p3
F0.0007996801279488205
sS'C_given_T'
p4
F1.0
sa(dp5
S'C_given_C'
p6
F0.9935768767563228
sS'T_given_C'
p7
F0.006423123243677238
sS'C_given_T'
p8
F1.0
sa(dp9
S'A_given_G'
p10
F0.003595685177786656
sS'G_given_G'
p11
F0.9964043148222134
sS'G_given_A'
p12
F1.0
sa(dp13
S'G_given_T'
p14
F1.0
sS'G_given_G'
p15
F0.9996004794246904
sS'T_given_G'
p16
F0.00039952057530962844
sa(dp17
S'A_given_A'
p18
F1.0
sS'A_given_G'
p19
F1.0
sa(dp20
S'A_given_AAAG'
p21
F0.004827031375703942
sS'AAAG_given_A'
p22
F1.0
sS'AAAG_given_AAAG'
p23
F0.995172968624296
sa(dp24
S'A_given_G'
p25
F0.8579387186629527
sS'A_given_A'
p26
F0.8442890442890443
sS'G_given_A'
p27
F0.15571095571095572
sS'G_given_G'
p28
F0.14206128133704737
sa(dp29
S'A_given_G'
p30
F0.20351758793969849
sS'A_given_A'
p31
F0.2509727626459144
sS'G_given_A'
p32
F0.7490272373540856
sS'G_given_G'
p33
F0.7964824120603016
sa(dp34
S'C_given_A'
p35
F0.0007993605115907274
sS'A_given_C'
p36
F1.0
sS'A_given_A'
p37
F0.9992006394884093
sa(dp38
S'C_given_C'
p39
F0.9943910256410257
sS'T_given_C'
p40
F0.005608974358974359
sS'C_given_T'
p41
F1.0
sa(dp42
S'G_given_G'
p43
F1.0
sS'G_given_A'
p44
F1.0
sa(dp45
S'A_given_G'
p46
F1.0
sS'A_given_A'
p47
F0.9992006394884093
sS'G_given_A'
p48
F0.0007993605115907274
sa(dp49
S'C_given_C'
p50
F1.0
sS'C_given_T'
p51
F1.0
sa(dp52
S'C_given_C'
p53
F1.0
sS'C_given_G'
p54
F1.0
sa(dp55
S'A_given_G'
p56
F0.75
sS'A_given_A'
p57
F0.998
sS'G_given_A'
p58
F0.002
sS'G_given_G'
p59
F0.25
sa(dp60
S'G_given_G'
p61
F1.0
sS'G_given_C'
p62
F1.0
sa(dp63
S'G_given_T'
p64
F0.002004008016032064
sS'T_given_T'
p65
F0.9979959919839679
sS'G_given_G'
p66
F0.1111111111111111
sS'T_given_G'
p67
F0.8888888888888888
sa(dp68
S'T_given_T'
p69
F0.9996003197442046
sS'T_given_C'
p70
F1.0
sS'C_given_T'
p71
F0.0003996802557953637
sa(dp72
S'C_given_A'
p73
F0.00039936102236421724
sS'A_given_A'
p74
F0.9996006389776357
sa(dp75
S'C_given_C'
p76
F0.9992009588493808
sS'T_given_C'
p77
F0.0007990411506192569
sS'C_given_T'
p78
F1.0
sa(dp79
S'C_given_C'
p80
F1.0
sS'C_given_T'
p81
F1.0
sa(dp82
S'T_given_T'
p83
F1.0
sS'T_given_C'
p84
F1.0
sa(dp85
S'A_given_A'
p86
F0.9996006389776357
sS'G_given_A'
p87
F0.00039936102236421724
sa(dp88
S'T_given_T'
p89
F1.0
sS'T_given_C'
p90
F1.0
sa(dp91
S'A_given_A'
p92
F0.9992012779552716
sS'G_given_A'
p93
F0.0007987220447284345
sa(dp94
S'A_given_A'
p95
F1.0
sS'A_given_G'
p96
F1.0
sa(dp97
S'T_given_T'
p98
F0.9992009588493808
sS'T_given_C'
p99
F1.0
sS'C_given_T'
p100
F0.0007990411506192569
sa(dp101
S'G_given_G'
p102
F0.9996006389776357
sS'A_given_G'
p103
F0.00039936102236421724
sa(dp104
S'G_given_G'
p105
F1.0
sS'G_given_A'
p106
F1.0
sa(dp107
S'G_given_G'
p108
F0.9996006389776357
sS'A_given_G'
p109
F0.00039936102236421724
sa(dp110
S'C_given_A'
p111
F0.07281344248168893
sS'A_given_C'
p112
F0.9071038251366119
sS'A_given_A'
p113
F0.927186557518311
sS'C_given_C'
p114
F0.09289617486338797
sa(dp115
S'T_given_T'
p116
F0.9984
sS'A_given_T'
p117
F0.0015999999999999999
sS'T_given_A'
p118
F1.0
sa(dp119
S'C_given_A'
p120
F0.0003996802557953637
sS'A_given_C'
p121
F1.0
sS'A_given_A'
p122
F0.9996003197442046
sa(dp123
S'A_given_C'
p124
F0.00039936102236421724
sS'C_given_C'
p125
F0.9996006389776357
sa(dp126
S'G_given_G'
p127
F0.9996006389776357
sS'A_given_G'
p128
F0.00039936102236421724
sa(dp129
S'G_given_T'
p130
F0.00039936102236421724
sS'T_given_T'
p131
F0.9996006389776357
sa(dp132
S'C_given_C'
p133
F1.0
sS'C_given_T'
p134
F1.0
sa(dp135
S'A_given_G'
p136
F1.0
sS'A_given_A'
p137
F0.9971988795518207
sS'G_given_A'
p138
F0.0028011204481792717
sa(dp139
S'T_given_T'
p140
F1.0
sS'T_given_C'
p141
F1.0
sa(dp142
S'A_given_A'
p143
F1.0
sS'A_given_T'
p144
F1.0
sa(dp145
S'C_given_A'
p146
F0.21717990275526744
sS'A_given_C'
p147
F0.7029096477794794
sS'A_given_A'
p148
F0.7828200972447327
sS'C_given_C'
p149
F0.29709035222052066
sa(dp150
S'C_given_C'
p151
F0.9988009592326139
sS'T_given_C'
p152
F0.001199040767386091
sS'C_given_T'
p153
F1.0
sa(dp154
S'C_given_A'
p155
F1.0
sS'A_given_C'
p156
F0.0007996801279488205
sS'C_given_C'
p157
F0.9992003198720512
sa(dp158
S'G_given_G'
p159
F1.0
sS'G_given_C'
p160
F1.0
sa(dp161
S'A_given_A'
p162
F1.0
sS'A_given_T'
p163
F1.0
sa(dp164
S'T_given_T'
p165
F1.0
sS'T_given_C'
p166
F1.0
sa(dp167
S'A_given_G'
p168
F0.8
sS'A_given_A'
p169
F0.9915797914995991
sS'G_given_A'
p170
F0.008420208500400962
sS'G_given_G'
p171
F0.2
sa(dp172
S'C_given_A'
p173
F1.0
sS'C_given_C'
p174
F1.0
sa(dp175
S'A_given_G'
p176
F1.0
sS'A_given_A'
p177
F0.9980015987210231
sS'G_given_A'
p178
F0.0019984012789768186
sa(dp179
S'A_given_G'
p180
F0.9071038251366119
sS'A_given_A'
p181
F0.927186557518311
sS'G_given_A'
p182
F0.07281344248168893
sS'G_given_G'
p183
F0.09289617486338797
sa(dp184
S'G_given_G'
p185
F0.9996006389776357
sS'A_given_G'
p186
F0.00039936102236421724
sa(dp187
S'A_given_A'
p188
F0.9996006389776357
sS'G_given_A'
p189
F0.00039936102236421724
sa(dp190
S'T_given_T'
p191
F0.9996004794246904
sS'T_given_C'
p192
F1.0
sS'C_given_T'
p193
F0.00039952057530962844
sa(dp194
S'A_given_A'
p195
F0.9996006389776357
sS'G_given_A'
p196
F0.00039936102236421724
sa(dp197
S'G_given_G'
p198
F1.0
sS'G_given_A'
p199
F1.0
sa(dp200
S'G_given_T'
p201
F1.0
sS'G_given_G'
p202
F1.0
sa(dp203
S'C_given_C'
p204
F0.9996006389776357
sS'G_given_C'
p205
F0.00039936102236421724
sa(dp206
S'G_given_G'
p207
F1.0
sS'G_given_A'
p208
F1.0
sa(dp209
S'C_given_A'
p210
F0.00039952057530962844
sS'A_given_C'
p211
F1.0
sS'A_given_A'
p212
F0.9996004794246904
sa(dp213
S'A_given_A'
p214
F1.0
sS'A_given_G'
p215
F1.0
sa(dp216
S'T_given_T'
p217
F0.9939467312348668
sS'T_given_C'
p218
F1.0
sS'C_given_T'
p219
F0.006053268765133172
sa(dp220
S'A_given_G'
p221
F1.0
sS'A_given_A'
p222
F0.9992009588493808
sS'G_given_A'
p223
F0.0007990411506192569
sa(dp224
S'T_given_T'
p225
F0.9988009592326139
sS'T_given_C'
p226
F1.0
sS'C_given_T'
p227
F0.001199040767386091
sa(dp228
S'T_given_T'
p229
F0.9971988795518207
sS'T_given_C'
p230
F1.0
sS'C_given_T'
p231
F0.0028011204481792717
sa(dp232
S'C_given_C'
p233
F0.9996004794246904
sS'T_given_C'
p234
F0.00039952057530962844
sS'C_given_T'
p235
F1.0
sa(dp236
S'T_given_T'
p237
F0.9996006389776357
sS'A_given_T'
p238
F0.00039936102236421724
sa(dp239
S'T_given_T'
p240
F1.0
sS'T_given_C'
p241
F1.0
sa(dp242
S'A_given_A'
p243
F1.0
sS'A_given_G'
p244
F1.0
sa(dp245
S'G_given_G'
p246
F0.9996006389776357
sS'A_given_G'
p247
F0.00039936102236421724
sa(dp248
S'G_given_G'
p249
F0.9996006389776357
sS'A_given_G'
p250
F0.00039936102236421724
sa(dp251
S'T_given_T'
p252
F1.0
sS'T_given_A'
p253
F1.0
sa(dp254
S'C_given_C'
p255
F1.0
sS'C_given_T'
p256
F1.0
sa(dp257
S'A_given_A'
p258
F0.9960031974420464
sS'A_given_T'
p259
F1.0
sS'T_given_A'
p260
F0.003996802557953637
sa(dp261
S'A_given_G'
p262
F1.0
sS'A_given_A'
p263
F0.9996004794246904
sS'G_given_A'
p264
F0.00039952057530962844
sa(dp265
S'A_given_A'
p266
F0.9996006389776357
sS'G_given_A'
p267
F0.00039936102236421724
sa(dp268
S'T_given_T'
p269
F0.9996004794246904
sS'T_given_C'
p270
F1.0
sS'C_given_T'
p271
F0.00039952057530962844
sa(dp272
S'C_given_C'
p273
F0.09289617486338797
sS'T_given_T'
p274
F0.9276174062903921
sS'T_given_C'
p275
F0.9071038251366119
sS'C_given_T'
p276
F0.07238259370960792
sa(dp277
S'A_given_A'
p278
F0.9996006389776357
sS'G_given_A'
p279
F0.00039936102236421724
sa(dp280
S'A_given_G'
p281
F0.9
sS'A_given_A'
p282
F0.9971932638331997
sS'G_given_A'
p283
F0.0028067361668003207
sS'G_given_G'
p284
F0.1
sa(dp285
S'A_given_A'
p286
F0.9996006389776357
sS'G_given_A'
p287
F0.00039936102236421724
sa(dp288
S'C_given_A'
p289
F0.0007996801279488205
sS'A_given_C'
p290
F1.0
sS'A_given_A'
p291
F0.9992003198720512
sa(dp292
S'A_given_A'
p293
F0.9988019169329073
sS'G_given_A'
p294
F0.0011980830670926517
sa(dp295
S'T_given_T'
p296
F0.9996006389776357
sS'A_given_T'
p297
F0.00039936102236421724
sa(dp298
S'A_given_A'
p299
F1.0
sS'A_given_G'
p300
F1.0
sa(dp301
S'A_given_A'
p302
F0.9996006389776357
sS'G_given_A'
p303
F0.00039936102236421724
sa(dp304
S'T_given_T'
p305
F0.9983987189751801
sS'T_given_C'
p306
F1.0
sS'C_given_T'
p307
F0.0016012810248198558
sa(dp308
S'G_given_G'
p309
F0.9992012779552716
sS'A_given_G'
p310
F0.0007987220447284345
sa(dp311
S'G_given_T'
p312
F0.00039936102236421724
sS'T_given_T'
p313
F0.9996006389776357
sa(dp314
S'T_given_T'
p315
F1.0
sS'T_given_A'
p316
F1.0
sa(dp317
S'G_given_G'
p318
F0.9996006389776357
sS'A_given_G'
p319
F0.00039936102236421724
sa(dp320
S'G_given_G'
p321
F1.0
sS'G_given_A'
p322
F1.0
sa(dp323
S'G_given_G'
p324
F1.0
sS'G_given_A'
p325
F1.0
sa(dp326
S'T_given_T'
p327
F0.9975980784627702
sS'A_given_T'
p328
F0.0024019215372297837
sS'T_given_A'
p329
F1.0
sa(dp330
S'C_given_C'
p331
F0.9975980784627702
sS'T_given_C'
p332
F0.0024019215372297837
sS'C_given_T'
p333
F1.0
sa(dp334
S'A_given_A'
p335
F1.0
sS'A_given_G'
p336
F1.0
sa(dp337
S'A_given_A'
p338
F0.9983987189751801
sS'A_given_T'
p339
F1.0
sS'T_given_A'
p340
F0.0016012810248198558
sa(dp341
S'A_given_G'
p342
F0.914572864321608
sS'A_given_A'
p343
F0.9197396963123644
sS'G_given_A'
p344
F0.08026030368763558
sS'G_given_G'
p345
F0.08542713567839195
sa(dp346
S'C_given_C'
p347
F1.0
sS'C_given_G'
p348
F1.0
sa(dp349
S'A_given_A'
p350
F0.9996006389776357
sS'G_given_A'
p351
F0.00039936102236421724
sa(dp352
S'G_given_G'
p353
F0.9996006389776357
sS'A_given_G'
p354
F0.00039936102236421724
sa(dp355
S'T_given_T'
p356
F0.9996006389776357
sS'C_given_T'
p357
F0.00039936102236421724
sa(dp358
S'C_given_C'
p359
F0.9996006389776357
sS'T_given_C'
p360
F0.00039936102236421724
sa(dp361
S'A_given_A'
p362
F0.9996006389776357
sS'T_given_A'
p363
F0.00039936102236421724
sa(dp364
S'G_given_G'
p365
F0.9996006389776357
sS'A_given_G'
p366
F0.00039936102236421724
sa(dp367
S'C_given_C'
p368
F0.0625
sS'T_given_T'
p369
F0.9931672025723473
sS'T_given_C'
p370
F0.9375
sS'C_given_T'
p371
F0.0068327974276527325
sa(dp372
S'A_given_A'
p373
F0.9996006389776357
sS'T_given_A'
p374
F0.00039936102236421724
sa(dp375
S'C_given_A'
p376
F0.00039936102236421724
sS'A_given_A'
p377
F0.9996006389776357
sa(dp378
S'T_given_T'
p379
F1.0
sS'T_given_C'
p380
F1.0
sa(dp381
S'G_given_G'
p382
F0.9996006389776357
sS'A_given_G'
p383
F0.00039936102236421724
sa(dp384
S'A_given_G'
p385
F0.7177541729893778
sS'A_given_A'
p386
F0.7338753387533875
sS'G_given_A'
p387
F0.2661246612466125
sS'G_given_G'
p388
F0.2822458270106221
sa(dp389
S'C_given_C'
p390
F0.25
sS'T_given_T'
p391
F0.9992
sS'T_given_C'
p392
F0.75
sS'C_given_T'
p393
F0.0007999999999999999
sa(dp394
S'A_given_A'
p395
F1.0
sS'A_given_G'
p396
F1.0
sa(dp397
S'A_given_G'
p398
F1.0
sS'A_given_A'
p399
F0.9992003198720512
sS'G_given_A'
p400
F0.0007996801279488205
sa(dp401
S'G_given_G'
p402
F1.0
sS'G_given_A'
p403
F1.0
sa(dp404
S'C_given_C'
p405
F0.9996001599360257
sS'T_given_C'
p406
F0.00039984006397441024
sS'C_given_T'
p407
F1.0
sa(dp408
S'A_given_G'
p409
F0.002398081534772182
sS'G_given_G'
p410
F0.9976019184652277
sS'G_given_A'
p411
F1.0
sa(dp412
S'C_given_C'
p413
F0.9996006389776357
sS'T_given_C'
p414
F0.00039936102236421724
sa(dp415
S'A_given_A'
p416
F0.9996006389776357
sS'T_given_A'
p417
F0.00039936102236421724
sa(dp418
S'C_given_C'
p419
F0.18048780487804877
sS'T_given_T'
p420
F0.8290353390639924
sS'T_given_C'
p421
F0.8195121951219513
sS'C_given_T'
p422
F0.17096466093600762
sa(dp423
S'A_given_G'
p424
F0.004004805766920304
sS'G_given_G'
p425
F0.9959951942330797
sS'G_given_A'
p426
F1.0
sa(dp427
S'A_given_A'
p428
F0.9996006389776357
sS'T_given_A'
p429
F0.00039936102236421724
sa(dp430
S'T_given_T'
p431
F0.9996006389776357
sS'A_given_T'
p432
F0.00039936102236421724
sa(dp433
S'G_given_G'
p434
F0.9992012779552716
sS'A_given_G'
p435
F0.0007987220447284345
sa(dp436
S'A_given_C'
p437
F1.0
sS'A_given_A'
p438
F1.0
sa(dp439
S'C_given_A'
p440
F0.005608974358974359
sS'A_given_C'
p441
F1.0
sS'A_given_A'
p442
F0.9943910256410257
sa(dp443
S'A_given_C'
p444
F0.00039936102236421724
sS'C_given_C'
p445
F0.9996006389776357
sa(dp446
S'A_given_G'
p447
F1.0
sS'A_given_A'
p448
F0.9987985582699239
sS'G_given_A'
p449
F0.0012014417300760913
sa(dp450
S'C_given_C'
p451
F0.9983974358974359
sS'T_given_C'
p452
F0.0016025641025641025
sS'C_given_T'
p453
F1.0
sa(dp454
S'A_given_A'
p455
F0.9996006389776357
sS'G_given_A'
p456
F0.00039936102236421724
sa(dp457
S'G_given_T'
p458
F1.0
sS'G_given_G'
p459
F0.9963898916967509
sS'T_given_G'
p460
F0.003610108303249097
sa(dp461
S'C_given_A'
p462
F1.0
sS'C_given_C'
p463
F1.0
sa(dp464
S'A_given_A'
p465
F1.0
sS'A_given_G'
p466
F1.0
sa(dp467
S'C_given_C'
p468
F1.0
sS'C_given_G'
p469
F1.0
sa(dp470
S'A_given_A'
p471
F0.9996006389776357
sS'G_given_A'
p472
F0.00039936102236421724
sa(dp473
S'A_given_A'
p474
F0.9996006389776357
sS'G_given_A'
p475
F0.00039936102236421724
sa(dp476
S'A_given_A'
p477
F0.9996006389776357
sS'G_given_A'
p478
F0.00039936102236421724
sa(dp479
S'A_given_G'
p480
F0.02378999179655455
sS'A_given_A'
p481
F0.09090909090909091
sS'G_given_A'
p482
F0.9090909090909091
sS'G_given_G'
p483
F0.9762100082034454
sa(dp484
S'A_given_A'
p485
F0.9996006389776357
sS'G_given_A'
p486
F0.00039936102236421724
sa(dp487
S'C_given_C'
p488
F0.9992012779552716
sS'T_given_C'
p489
F0.0007987220447284345
sa(dp490
S'A_given_G'
p491
F0.0003996802557953637
sS'G_given_G'
p492
F0.9996003197442046
sS'G_given_A'
p493
F1.0
sa(dp494
S'T_given_T'
p495
F1.0
sS'T_given_C'
p496
F1.0
sa(dp497
S'C_given_C'
p498
F1.0
sS'C_given_G'
p499
F1.0
sa(dp500
S'C_given_A'
p501
F0.8
sS'A_given_C'
p502
F0.0008003201280512204
sS'A_given_A'
p503
F0.2
sS'C_given_C'
p504
F0.9991996798719488
sa(dp505
S'A_given_C'
p506
F1.0
sS'A_given_A'
p507
F1.0
sa(dp508
S'A_given_G'
p509
F1.0
sS'A_given_A'
p510
F0.9996004794246904
sS'G_given_A'
p511
F0.00039952057530962844
sa(dp512
S'C_given_A'
p513
F0.0007996801279488205
sS'A_given_C'
p514
F1.0
sS'A_given_A'
p515
F0.9992003198720512
sa(dp516
S'T_given_T'
p517
F1.0
sS'T_given_C'
p518
F1.0
sa(dp519
S'A_given_A'
p520
F1.0
sS'A_given_G'
p521
F1.0
sa(dp522
S'T_given_T'
p523
F1.0
sS'T_given_C'
p524
F1.0
sa(dp525
S'A_given_A'
p526
F0.9996006389776357
sS'G_given_A'
p527
F0.00039936102236421724
sa(dp528
S'C_given_C'
p529
F1.0
sS'C_given_T'
p530
F1.0
sa(dp531
S'A_given_A'
p532
F0.9996006389776357
sS'G_given_A'
p533
F0.00039936102236421724
sa(dp534
S'A_given_A'
p535
F0.5
sS'G_given_A'
p536
F0.5
sS'G_given_G'
p537
F1.0
sa(dp538
S'A_given_A'
p539
F0.9996006389776357
sS'G_given_A'
p540
F0.00039936102236421724
sa(dp541
S'C_given_C'
p542
F1.0
sS'C_given_T'
p543
F1.0
sa(dp544
S'C_given_C'
p545
F0.9983993597438976
sS'T_given_C'
p546
F0.0016006402561024409
sS'C_given_T'
p547
F1.0
sa(dp548
S'C_given_C'
p549
F0.9984
sS'T_given_C'
p550
F0.0015999999999999999
sS'C_given_T'
p551
F1.0
sa(dp552
S'G_given_G'
p553
F0.9996006389776357
sS'A_given_G'
p554
F0.00039936102236421724
sa(dp555
S'G_given_G'
p556
F1.0
sS'G_given_A'
p557
F1.0
sa(dp558
S'A_given_A'
p559
F1.0
sa(dp560
S'A_given_G'
p561
F0.9375
sS'A_given_A'
p562
F0.9931672025723473
sS'G_given_A'
p563
F0.0068327974276527325
sS'G_given_G'
p564
F0.0625
sa(dp565
S'C_given_C'
p566
F1.0
sS'C_given_T'
p567
F1.0
sa(dp568
S'G_given_G'
p569
F1.0
sS'G_given_A'
p570
F1.0
sa(dp571
S'C_given_C'
p572
F1.0
sS'C_given_G'
p573
F1.0
sa(dp574
S'A_given_C'
p575
F1.0
sS'A_given_A'
p576
F1.0
sa(dp577
S'C_given_C'
p578
F0.9996006389776357
sS'T_given_C'
p579
F0.00039936102236421724
sa(dp580
S'G_given_G'
p581
F1.0
sS'G_given_A'
p582
F1.0
sa(dp583
S'G_given_G'
p584
F0.9996006389776357
sS'A_given_G'
p585
F0.00039936102236421724
sa(dp586
S'G_given_T'
p587
F0.0028
sS'T_given_T'
p588
F0.9972
sS'T_given_G'
p589
F1.0
sa(dp590
S'G_given_G'
p591
F0.9996006389776357
sS'A_given_G'
p592
F0.00039936102236421724
sa(dp593
S'A_given_G'
p594
F0.006028938906752411
sS'G_given_G'
p595
F0.9939710610932475
sS'G_given_A'
p596
F1.0
sa(dp597
S'T_given_T'
p598
F0.9996006389776357
sS'C_given_T'
p599
F0.00039936102236421724
sa(dp600
S'C_given_C'
p601
F1.0
sS'C_given_G'
p602
F1.0
sa(dp603
S'C_given_C'
p604
F0.993139628732849
sS'T_given_C'
p605
F0.006860371267150928
sS'C_given_T'
p606
F1.0
sa(dp607
S'G_given_G'
p608
F0.9992012779552716
sS'A_given_G'
p609
F0.0007987220447284345
sa(dp610
S'A_given_C'
p611
F1.0
sS'A_given_A'
p612
F1.0
sa(dp613
S'A_given_G'
p614
F1.0
sS'A_given_A'
p615
F0.9976028765481423
sS'G_given_A'
p616
F0.0023971234518577705
sa(dp617
S'T_given_T'
p618
F1.0
sS'T_given_C'
p619
F1.0
sa(dp620
S'G_given_G'
p621
F0.9996006389776357
sS'A_given_G'
p622
F0.00039936102236421724
sa(dp623
S'C_given_A'
p624
F0.00039936102236421724
sS'A_given_A'
p625
F0.9996006389776357
sa(dp626
S'A_given_G'
p627
F0.001599360255897641
sS'G_given_G'
p628
F0.9984006397441024
sS'G_given_A'
p629
F1.0
sa(dp630
S'A_given_A'
p631
F0.9996006389776357
sS'G_given_A'
p632
F0.00039936102236421724
sa(dp633
S'A_given_A'
p634
F0.9996006389776357
sS'G_given_A'
p635
F0.00039936102236421724
sa(dp636
S'T_given_T'
p637
F0.9996006389776357
sS'C_given_T'
p638
F0.00039936102236421724
sa(dp639
S'C_given_C'
p640
F0.9960031974420464
sS'T_given_C'
p641
F0.003996802557953637
sS'C_given_T'
p642
F1.0
sa(dp643
S'C_given_C'
p644
F0.9984006397441024
sS'T_given_C'
p645
F0.001599360255897641
sS'C_given_T'
p646
F1.0
sa(dp647
S'G_given_T'
p648
F1.0
sS'G_given_G'
p649
F0.9992009588493808
sS'T_given_G'
p650
F0.0007990411506192569
sa(dp651
S'T_given_T'
p652
F0.9996006389776357
sS'C_given_T'
p653
F0.00039936102236421724
sa(dp654
S'C_given_A'
p655
F1.0
sS'A_given_C'
p656
F0.003601440576230492
sS'C_given_C'
p657
F0.9963985594237695
sa(dp658
S'G_given_G'
p659
F0.9996006389776357
sS'C_given_G'
p660
F0.00039936102236421724
sa(dp661
S'A_given_A'
p662
F1.0
sS'A_given_G'
p663
F1.0
sa(dp664
S'C_given_C'
p665
F0.9988004798080768
sS'T_given_C'
p666
F0.0011995201919232307
sS'C_given_T'
p667
F1.0
sa(dp668
S'A_given_G'
p669
F0.004006410256410256
sS'A_given_A'
p670
F0.125
sS'G_given_A'
p671
F0.875
sS'G_given_G'
p672
F0.9959935897435899
sa(dp673
S'G_given_G'
p674
F1.0
sS'G_given_A'
p675
F1.0
sa(dp676
S'A_given_G'
p677
F1.0
sS'A_given_A'
p678
F0.993963782696177
sS'G_given_A'
p679
F0.006036217303822937
sa(dp680
S'G_given_T'
p681
F0.8
sS'T_given_T'
p682
F0.2
sS'G_given_G'
p683
F0.9991996798719488
sS'T_given_G'
p684
F0.0008003201280512204
sa(dp685
S'C_given_C'
p686
F0.9996006389776357
sS'G_given_C'
p687
F0.00039936102236421724
sa(dp688
S'C_given_G'
p689
F0.9090909090909091
sS'G_given_G'
p690
F0.09090909090909091
sS'C_given_C'
p691
F0.9753896636587366
sS'T_given_C'
p692
F0.0008203445447087776
sS'G_given_C'
p693
F0.02378999179655455
sa(dp694
S'C_given_C'
p695
F0.9996006389776357
sS'T_given_C'
p696
F0.00039936102236421724
sa(dp697
S'A_given_A'
p698
F0.9996006389776357
sS'G_given_A'
p699
F0.00039936102236421724
sa(dp700
S'T_given_T'
p701
F0.9996006389776357
sS'C_given_T'
p702
F0.00039936102236421724
sa(dp703
S'A_given_A'
p704
F0.9996006389776357
sS'G_given_A'
p705
F0.00039936102236421724
sa(dp706
S'G_given_G'
p707
F0.9996006389776357
sS'A_given_G'
p708
F0.00039936102236421724
sa(dp709
S'G_given_T'
p710
F1.0
sS'G_given_G'
p711
F1.0
sa(dp712
S'C_given_A'
p713
F0.0007987220447284345
sS'A_given_A'
p714
F0.9992012779552716
sa(dp715
S'A_given_A'
p716
F1.0
sS'A_given_G'
p717
F1.0
sa(dp718
S'C_given_A'
p719
F0.00039936102236421724
sS'A_given_A'
p720
F0.9996006389776357
sa(dp721
S'A_given_A'
p722
F1.0
sS'A_given_T'
p723
F1.0
sa(dp724
S'T_given_T'
p725
F1.0
sS'T_given_C'
p726
F1.0
sa(dp727
S'A_given_C'
p728
F1.0
sS'A_given_A'
p729
F1.0
sa(dp730
S'C_given_G'
p731
F0.0068327974276527325
sS'C_given_C'
p732
F0.0625
sS'G_given_G'
p733
F0.9931672025723473
sS'G_given_C'
p734
F0.9375
sa(dp735
S'C_given_C'
p736
F0.9996001599360257
sS'C_given_G'
p737
F1.0
sS'G_given_C'
p738
F0.00039984006397441024
sa(dp739
S'G_given_T'
p740
F1.0
sS'G_given_G'
p741
F1.0
sa(dp742
S'G_given_G'
p743
F0.9996006389776357
sS'A_given_G'
p744
F0.00039936102236421724
sa(dp745
S'C_given_A'
p746
F1.0
sS'A_given_C'
p747
F0.0008003201280512204
sS'C_given_C'
p748
F0.9991996798719488
sa(dp749
S'A_given_G'
p750
F0.743006993006993
sS'A_given_A'
p751
F0.7691511387163561
sS'G_given_A'
p752
F0.2308488612836439
sS'G_given_G'
p753
F0.256993006993007
sa(dp754
S'A_given_C'
p755
F1.0
sS'A_given_A'
p756
F1.0
sa(dp757
S'A_given_G'
p758
F0.9166666666666666
sS'A_given_A'
p759
F0.989516129032258
sS'G_given_A'
p760
F0.010483870967741934
sS'G_given_G'
p761
F0.08333333333333333
sa(dp762
S'A_given_A'
p763
F0.9996006389776357
sS'G_given_A'
p764
F0.00039936102236421724
sa(dp765
S'C_given_C'
p766
F0.9996006389776357
sS'G_given_C'
p767
F0.00039936102236421724
sa(dp768
S'C_given_C'
p769
F0.979089790897909
sS'T_given_T'
p770
F0.07692307692307691
sS'T_given_C'
p771
F0.020910209102091022
sS'C_given_T'
p772
F0.923076923076923
sa(dp773
S'G_given_T'
p774
F0.00039952057530962844
sS'T_given_T'
p775
F0.9996004794246904
sS'T_given_G'
p776
F1.0
sa(dp777
S'C_given_C'
p778
F0.12244897959183672
sS'T_given_T'
p779
F0.9898167006109979
sS'T_given_C'
p780
F0.8775510204081632
sS'C_given_T'
p781
F0.010183299389002035
sa(dp782
S'C_given_C'
p783
F0.9996004794246904
sS'T_given_C'
p784
F0.00039952057530962844
sS'C_given_T'
p785
F1.0
sa(dp786
S'G_given_G'
p787
F1.0
sS'G_given_A'
p788
F1.0
sa(dp789
S'C_given_C'
p790
F0.9996006389776357
sS'T_given_C'
p791
F0.00039936102236421724
sa(dp792
S'C_given_C'
p793
F1.0
sS'C_given_T'
p794
F1.0
sa(dp795
S'C_given_C'
p796
F0.9992009588493808
sS'T_given_C'
p797
F0.0007990411506192569
sS'C_given_T'
p798
F1.0
sa(dp799
S'A_given_G'
p800
F0.004410585404971933
sS'G_given_G'
p801
F0.9955894145950281
sS'G_given_A'
p802
F1.0
sa(dp803
S'C_given_C'
p804
F1.0
sS'C_given_T'
p805
F1.0
sa(dp806
S'A_given_A'
p807
F0.9996006389776357
sS'G_given_A'
p808
F0.00039936102236421724
sa(dp809
S'A_given_A'
p810
F1.0
sS'A_given_G'
p811
F1.0
sa(dp812
S'A_given_A'
p813
F0.9996006389776357
sS'G_given_A'
p814
F0.00039936102236421724
sa(dp815
S'T_given_T'
p816
F0.9996006389776357
sS'A_given_T'
p817
F0.00039936102236421724
sa(dp818
S'A_given_A'
p819
F1.0
sS'A_given_G'
p820
F1.0
sa(dp821
S'G_given_G'
p822
F1.0
sS'G_given_A'
p823
F1.0
sa(dp824
S'T_given_T'
p825
F0.9996006389776357
sS'C_given_T'
p826
F0.00039936102236421724
sa(dp827
S'T_given_T'
p828
F1.0
sS'T_given_C'
p829
F1.0
sa(dp830
S'G_given_G'
p831
F1.0
sa(dp832
S'G_given_G'
p833
F0.9996006389776357
sS'C_given_G'
p834
F0.00039936102236421724
sa(dp835
S'A_given_G'
p836
F1.0
sS'A_given_A'
p837
F0.9988014382740712
sS'G_given_A'
p838
F0.0011985617259288853
sa(dp839
S'G_given_T'
p840
F1.0
sS'G_given_G'
p841
F0.9992009588493808
sS'T_given_G'
p842
F0.0007990411506192569
sa(dp843
S'A_given_G'
p844
F0.0003996802557953637
sS'G_given_G'
p845
F0.9996003197442046
sS'G_given_A'
p846
F1.0
sa(dp847
S'G_given_T'
p848
F1.0
sS'G_given_G'
p849
F0.9971977582065652
sS'T_given_G'
p850
F0.0028022417934347476
sa(dp851
S'G_given_T'
p852
F1.0
sS'G_given_G'
p853
F1.0
sa(dp854
S'T_given_T'
p855
F0.9996006389776357
sS'C_given_T'
p856
F0.00039936102236421724
sa(dp857
S'G_given_G'
p858
F1.0
sa(dp859
S'C_given_A'
p860
F0.014580801944106925
sS'A_given_C'
p861
F0.9714285714285714
sS'A_given_A'
p862
F0.9854191980558931
sS'C_given_C'
p863
F0.02857142857142857
sa(dp864
S'G_given_G'
p865
F1.0
sS'G_given_A'
p866
F1.0
sa(dp867
S'T_given_T'
p868
F0.9991996798719488
sS'T_given_C'
p869
F1.0
sS'C_given_T'
p870
F0.0008003201280512204
sa(dp871
S'A_given_A'
p872
F1.0
sS'A_given_G'
p873
F1.0
sa(dp874
S'G_given_G'
p875
F0.9996006389776357
sS'A_given_G'
p876
F0.00039936102236421724
sa(dp877
S'C_given_A'
p878
F0.00039936102236421724
sS'A_given_A'
p879
F0.9996006389776357
sa(dp880
S'A_given_A'
p881
F0.9996006389776357
sS'G_given_A'
p882
F0.00039936102236421724
sa(dp883
S'C_given_C'
p884
F0.9996006389776357
sS'T_given_C'
p885
F0.00039936102236421724
sa(dp886
S'G_given_G'
p887
F1.0
sS'G_given_A'
p888
F1.0
sa(dp889
S'A_given_A'
p890
F0.9927360774818402
sS'A_given_T'
p891
F0.9615384615384616
sS'T_given_T'
p892
F0.038461538461538464
sS'T_given_A'
p893
F0.007263922518159806
sa(dp894
S'T_given_T'
p895
F1.0
sS'T_given_C'
p896
F1.0
sa(dp897
S'G_given_T'
p898
F1.0
sS'G_given_G'
p899
F0.9988004798080768
sS'T_given_G'
p900
F0.0011995201919232307
sa(dp901
S'A_given_G'
p902
F0.009681323114158934
sS'A_given_A'
p903
F0.04
sS'G_given_A'
p904
F0.96
sS'G_given_G'
p905
F0.9903186768858411
sa(dp906
S'A_given_G'
p907
F0.0007990411506192569
sS'G_given_G'
p908
F0.9992009588493808
sS'G_given_A'
p909
F1.0
sa(dp910
S'C_given_C'
p911
F1.0
sS'C_given_G'
p912
F1.0
sa(dp913
S'C_given_C'
p914
F0.9996006389776357
sS'T_given_C'
p915
F0.00039936102236421724
sa(dp916
S'A_given_A'
p917
F0.9996006389776357
sS'G_given_A'
p918
F0.00039936102236421724
sa(dp919
S'G_given_G'
p920
F0.9988019169329073
sS'A_given_G'
p921
F0.0011980830670926517
sa(dp922
S'G_given_G'
p923
F1.0
sS'G_given_C'
p924
F1.0
sa(dp925
S'T_given_T'
p926
F0.9992012779552716
sS'C_given_T'
p927
F0.0007987220447284345
sa(dp928
S'T_given_T'
p929
F0.9996006389776357
sS'C_given_T'
p930
F0.00039936102236421724
sa(dp931
S'C_given_C'
p932
F1.0
sS'C_given_T'
p933
F1.0
sa(dp934
S'A_given_A'
p935
F0.9996006389776357
sS'G_given_A'
p936
F0.00039936102236421724
sa(dp937
S'G_given_G'
p938
F0.9996006389776357
sS'C_given_G'
p939
F0.00039936102236421724
sa(dp940
S'C_given_C'
p941
F1.0
sS'C_given_T'
p942
F1.0
sa(dp943
S'A_given_A'
p944
F0.9996006389776357
sS'G_given_A'
p945
F0.00039936102236421724
sa(dp946
S'G_given_G'
p947
F1.0
sS'G_given_C'
p948
F1.0
sa(dp949
S'C_given_C'
p950
F1.0
sS'C_given_T'
p951
F1.0
sa(dp952
S'G_given_G'
p953
F0.9960031974420464
sS'C_given_G'
p954
F0.003996802557953637
sS'G_given_C'
p955
F1.0
sa(dp956
S'A_given_A'
p957
F0.9992012779552716
sS'G_given_A'
p958
F0.0007987220447284345
sa(dp959
S'A_given_A'
p960
F1.0
sS'A_given_T'
p961
F1.0
sa(dp962
S'A_given_G'
p963
F0.0068327974276527325
sS'A_given_A'
p964
F0.0625
sS'G_given_A'
p965
F0.9375
sS'G_given_G'
p966
F0.9931672025723473
sa(dp967
S'A_given_G'
p968
F1.0
sS'A_given_A'
p969
F0.9991996798719488
sS'G_given_A'
p970
F0.0008003201280512204
sa(dp971
S'C_given_C'
p972
F0.9996006389776357
sS'G_given_C'
p973
F0.00039936102236421724
sa(dp974
S'C_given_C'
p975
F1.0
sS'C_given_T'
p976
F1.0
sa(dp977
S'G_given_G'
p978
F0.9996006389776357
sS'A_given_G'
p979
F0.00039936102236421724
sa(dp980
S'A_given_C'
p981
F0.00039936102236421724
sS'C_given_C'
p982
F0.9996006389776357
sa(dp983
S'A_given_C'
p984
F0.00039936102236421724
sS'C_given_C'
p985
F0.9996006389776357
sa(dp986
S'C_given_A'
p987
F0.00039936102236421724
sS'A_given_A'
p988
F0.9996006389776357
sa(dp989
S'A_given_A'
p990
F0.99558764540714
sS'A_given_T'
p991
F1.0
sS'T_given_A'
p992
F0.004412354592860008
sa(dp993
S'C_given_C'
p994
F1.0
sS'C_given_G'
p995
F1.0
sa(dp996
S'A_given_C'
p997
F0.00039936102236421724
sS'C_given_C'
p998
F0.9996006389776357
sa(dp999
S'G_given_G'
p1000
F1.0
sS'G_given_A'
p1001
F1.0
sa(dp1002
S'A_given_G'
p1003
F0.0007993605115907274
sS'G_given_G'
p1004
F0.9992006394884093
sS'G_given_A'
p1005
F1.0
sa(dp1006
S'C_given_C'
p1007
F0.9992003198720512
sS'T_given_C'
p1008
F0.0007996801279488205
sS'C_given_T'
p1009
F1.0
sa(dp1010
S'C_given_C'
p1011
F0.9996006389776357
sS'T_given_C'
p1012
F0.00039936102236421724
sa(dp1013
S'A_given_G'
p1014
F0.9082568807339448
sS'A_given_A'
p1015
F0.955741127348643
sS'G_given_A'
p1016
F0.044258872651356994
sS'G_given_G'
p1017
F0.09174311926605504
sa(dp1018
S'T_given_T'
p1019
F0.9996006389776357
sS'C_given_T'
p1020
F0.00039936102236421724
sa(dp1021
S'C_given_C'
p1022
F0.9996006389776357
sS'T_given_C'
p1023
F0.00039936102236421724
sa(dp1024
S'C_given_C'
p1025
F1.0
sS'C_given_T'
p1026
F1.0
sa(dp1027
S'G_given_G'
p1028
F0.9992012779552716
sS'A_given_G'
p1029
F0.0007987220447284345
sa(dp1030
S'C_given_C'
p1031
F0.9996006389776357
sS'T_given_C'
p1032
F0.00039936102236421724
sa(dp1033
S'C_given_A'
p1034
F0.15154394299287413
sS'A_given_C'
p1035
F0.7819548872180451
sS'A_given_A'
p1036
F0.8484560570071259
sS'C_given_C'
p1037
F0.21804511278195488
sa(dp1038
S'G_given_G'
p1039
F0.9996006389776357
sS'C_given_G'
p1040
F0.00039936102236421724
sa(dp1041
S'A_given_A'
p1042
F0.3333333333333333
sS'G_given_A'
p1043
F0.6666666666666666
sS'G_given_G'
p1044
F1.0
sa(dp1045
S'G_given_G'
p1046
F0.9996006389776357
sS'A_given_G'
p1047
F0.00039936102236421724
sa(dp1048
S'T_given_T'
p1049
F0.9992009588493808
sS'T_given_C'
p1050
F1.0
sS'C_given_T'
p1051
F0.0007990411506192569
sa(dp1052
S'G_given_G'
p1053
F1.0
sS'G_given_A'
p1054
F1.0
sa(dp1055
S'G_given_G'
p1056
F0.047619047619047616
sS'C_given_C'
p1057
F0.9923479661699557
sS'C_given_G'
p1058
F0.9523809523809523
sS'G_given_C'
p1059
F0.007652033830044301
sa(dp1060
S'T_given_T'
p1061
F1.0
sS'T_given_C'
p1062
F1.0
sa(dp1063
S'A_given_G'
p1064
F0.7403314917127072
sS'A_given_A'
p1065
F0.7817440081591024
sS'G_given_A'
p1066
F0.2182559918408975
sS'G_given_G'
p1067
F0.2596685082872928
sa(dp1068
S'A_given_G'
p1069
F0.8
sS'A_given_A'
p1070
F0.9979991996798719
sS'G_given_A'
p1071
F0.0020008003201280513
sS'G_given_G'
p1072
F0.2
sa(dp1073
S'A_given_G'
p1074
F1.0
sS'A_given_A'
p1075
F0.9988004798080768
sS'G_given_A'
p1076
F0.0011995201919232307
sa(dp1077
S'C_given_A'
p1078
F0.975
sS'A_given_C'
p1079
F0.017045454545454544
sS'A_given_A'
p1080
F0.025
sS'C_given_C'
p1081
F0.9829545454545455
sa(dp1082
S'A_given_G'
p1083
F0.7535641547861507
sS'A_given_A'
p1084
F0.8127173373075013
sS'G_given_A'
p1085
F0.18728266269249877
sS'G_given_G'
p1086
F0.24643584521384929
sa(dp1087
S'A_given_G'
p1088
F0.0003996802557953637
sS'G_given_G'
p1089
F0.9996003197442046
sS'G_given_A'
p1090
F1.0
sa(dp1091
S'A_given_A'
p1092
F1.0
sS'A_given_AT'
p1093
F1.0
sa(dp1094
S'C_given_C'
p1095
F1.0
sS'C_given_T'
p1096
F1.0
sa(dp1097
S'A_given_A'
p1098
F0.9996006389776357
sS'G_given_A'
p1099
F0.00039936102236421724
sa(dp1100
S'C_given_C'
p1101
F1.0
sS'C_given_T'
p1102
F1.0
sa(dp1103
S'C_given_C'
p1104
F1.0
sS'C_given_T'
p1105
F1.0
sa(dp1106
S'A_given_A'
p1107
F1.0
sS'A_given_G'
p1108
F1.0
sa(dp1109
S'A_given_A'
p1110
F0.9967999999999999
sS'A_given_T'
p1111
F1.0
sS'T_given_A'
p1112
F0.0031999999999999997
sa(dp1113
S'AT_given_AT'
p1114
F0.7714581178903827
sS'A_given_A'
p1115
F0.2543859649122807
sS'A_given_AT'
p1116
F0.22854188210961737
sS'AT_given_A'
p1117
F0.7456140350877193
sa(dp1118
S'T_given_T'
p1119
F0.9979983987189752
sS'T_given_C'
p1120
F1.0
sS'C_given_T'
p1121
F0.0020016012810248197
sa(dp1122
S'A_given_G'
p1123
F0.8888888888888888
sS'A_given_A'
p1124
F0.995190380761523
sS'G_given_A'
p1125
F0.004809619238476954
sS'G_given_G'
p1126
F0.1111111111111111
sa(dp1127
S'A_given_G'
p1128
F0.9166666666666666
sS'A_given_A'
p1129
F0.995585874799358
sS'G_given_A'
p1130
F0.004414125200642055
sS'G_given_G'
p1131
F0.08333333333333333
sa(dp1132
S'T_given_T'
p1133
F1.0
sS'T_given_C'
p1134
F1.0
sa(dp1135
S'C_given_A'
p1136
F1.0
sS'A_given_C'
p1137
F0.0024125452352231603
sS'C_given_C'
p1138
F0.9975874547647768
sa(dp1139
S'A_given_A'
p1140
F1.0
sS'A_given_G'
p1141
F1.0
sa(dp1142
S'C_given_C'
p1143
F0.9967897271268057
sS'T_given_T'
p1144
F0.08333333333333333
sS'T_given_C'
p1145
F0.0032102728731942215
sS'C_given_T'
p1146
F0.9166666666666666
sa(dp1147
S'C_given_C'
p1148
F0.9915424889246879
sS'T_given_C'
p1149
F0.008457511075312122
sS'C_given_T'
p1150
F1.0
sa(dp1151
S'T_given_T'
p1152
F0.9988009592326139
sS'T_given_C'
p1153
F1.0
sS'C_given_T'
p1154
F0.001199040767386091
sa(dp1155
S'A_given_G'
p1156
F0.32450331125827814
sS'A_given_A'
p1157
F0.39383155397390274
sS'G_given_A'
p1158
F0.6061684460260973
sS'G_given_G'
p1159
F0.6754966887417219
sa(dp1160
S'G_given_G'
p1161
F0.9996004794246904
sS'C_given_G'
p1162
F0.00039952057530962844
sS'G_given_C'
p1163
F1.0
sa(dp1164
S'G_given_G'
p1165
F1.0
sS'G_given_A'
p1166
F1.0
sa(dp1167
S'A_given_A'
p1168
F1.0
sS'A_given_G'
p1169
F1.0
sa(dp1170
S'T_given_T'
p1171
F0.9992012779552716
sS'C_given_T'
p1172
F0.0007987220447284345
sa(dp1173
S'C_given_C'
p1174
F0.9996006389776357
sS'T_given_C'
p1175
F0.00039936102236421724
sa(dp1176
S'C_given_C'
p1177
F0.9939879759519038
sS'T_given_T'
p1178
F0.1111111111111111
sS'T_given_C'
p1179
F0.006012024048096192
sS'C_given_T'
p1180
F0.8888888888888888
sa(dp1181
S'T_given_T'
p1182
F1.0
sS'T_given_C'
p1183
F1.0
sa(dp1184
S'A_given_A'
p1185
F1.0
sS'A_given_G'
p1186
F1.0
sa(dp1187
S'C_given_C'
p1188
F1.0
sS'C_given_T'
p1189
F1.0
sa(dp1190
S'A_given_G'
p1191
F1.0
sS'A_given_A'
p1192
F0.9992009588493808
sS'G_given_A'
p1193
F0.0007990411506192569
sa(dp1194
S'CT_given_CT'
p1195
F0.35533384497313897
sS'C_given_C'
p1196
F0.3938384679433805
sS'C_given_CT'
p1197
F0.6446661550268612
sS'CT_given_C'
p1198
F0.6061615320566195
sa(dp1199
S'A_given_G'
p1200
F0.007639726578206675
sS'G_given_G'
p1201
F0.9923602734217933
sS'G_given_A'
p1202
F1.0
sa(dp1203
S'T_given_T'
p1204
F0.9979983987189752
sS'T_given_C'
p1205
F1.0
sS'C_given_T'
p1206
F0.0020016012810248197
sa(dp1207
S'T_given_T'
p1208
F1.0
sS'T_given_A'
p1209
F1.0
sa(dp1210
S'C_given_C'
p1211
F0.9996006389776357
sS'T_given_C'
p1212
F0.00039936102236421724
sa(dp1213
S'G_given_G'
p1214
F1.0
sS'G_given_A'
p1215
F1.0
sa(dp1216
S'C_given_C'
p1217
F1.0
sS'C_given_T'
p1218
F1.0
sa(dp1219
S'T_given_T'
p1220
F1.0
sS'T_given_C'
p1221
F1.0
sa(dp1222
S'G_given_G'
p1223
F0.9996006389776357
sS'A_given_G'
p1224
F0.00039936102236421724
sa(dp1225
S'T_given_T'
p1226
F1.0
sS'T_given_C'
p1227
F1.0
sa(dp1228
S'T_given_T'
p1229
F0.9996006389776357
sS'C_given_T'
p1230
F0.00039936102236421724
sa(dp1231
S'T_given_T'
p1232
F1.0
sS'T_given_A'
p1233
F1.0
sa(dp1234
S'T_given_T'
p1235
F1.0
sS'T_given_C'
p1236
F1.0
sa(dp1237
S'C_given_A'
p1238
F0.6084262701363073
sS'A_given_C'
p1239
F0.2958161461402475
sS'A_given_A'
p1240
F0.3915737298636927
sS'C_given_C'
p1241
F0.7041838538597526
sa(dp1242
S'T_given_T'
p1243
F1.0
sS'T_given_C'
p1244
F1.0
sa(dp1245
S'G_given_G'
p1246
F0.9996006389776357
sS'A_given_G'
p1247
F0.00039936102236421724
sa(dp1248
S'T_given_T'
p1249
F0.9988
sS'T_given_C'
p1250
F1.0
sS'C_given_T'
p1251
F0.0012
sa(dp1252
S'T_given_T'
p1253
F0.9996006389776357
sS'C_given_T'
p1254
F0.00039936102236421724
sa(dp1255
S'G_given_G'
p1256
F0.9996006389776357
sS'A_given_G'
p1257
F0.00039936102236421724
sa(dp1258
S'G_given_G'
p1259
F1.0
sS'G_given_A'
p1260
F1.0
sa(dp1261
S'A_given_G'
p1262
F0.0007990411506192569
sS'G_given_G'
p1263
F0.9992009588493808
sS'G_given_A'
p1264
F1.0
sa(dp1265
S'C_given_G'
p1266
F0.016194331983805668
sS'C_given_C'
p1267
F0.11764705882352941
sS'G_given_G'
p1268
F0.9838056680161944
sS'G_given_C'
p1269
F0.8823529411764706
sa(dp1270
S'A_given_A'
p1271
F1.0
sS'A_given_T'
p1272
F1.0
sa(dp1273
S'C_given_C'
p1274
F0.9996006389776357
sS'T_given_C'
p1275
F0.00039936102236421724
sa(dp1276
S'T_given_T'
p1277
F0.9996006389776357
sS'C_given_T'
p1278
F0.00039936102236421724
sa(dp1279
S'A_given_A'
p1280
F1.0
sS'A_given_G'
p1281
F1.0
sa(dp1282
S'G_given_G'
p1283
F0.9996006389776357
sS'C_given_G'
p1284
F0.00039936102236421724
sa(dp1285
S'G_given_G'
p1286
F0.9988019169329073
sS'A_given_G'
p1287
F0.0011980830670926517
sa(dp1288
S'C_given_C'
p1289
F0.9996006389776357
sS'T_given_C'
p1290
F0.00039936102236421724
sa(dp1291
S'T_given_T'
p1292
F1.0
sS'T_given_C'
p1293
F1.0
sa(dp1294
S'C_given_C'
p1295
F0.9996006389776357
sS'T_given_C'
p1296
F0.00039936102236421724
sa(dp1297
S'C_given_C'
p1298
F1.0
sS'C_given_G'
p1299
F1.0
sa(dp1300
S'G_given_G'
p1301
F0.9996006389776357
sS'A_given_G'
p1302
F0.00039936102236421724
sa(dp1303
S'C_given_C'
p1304
F0.9996006389776357
sS'T_given_C'
p1305
F0.00039936102236421724
sa(dp1306
S'C_given_C'
p1307
F0.9890953150242325
sS'T_given_T'
p1308
F0.03571428571428571
sS'T_given_C'
p1309
F0.010904684975767366
sS'C_given_T'
p1310
F0.9642857142857143
sa(dp1311
S'T_given_T'
p1312
F1.0
sS'T_given_C'
p1313
F1.0
sa(dp1314
S'C_given_C'
p1315
F0.9996006389776357
sS'G_given_C'
p1316
F0.00039936102236421724
sa(dp1317
S'A_given_G'
p1318
F0.875
sS'A_given_A'
p1319
F0.9983974358974359
sS'G_given_A'
p1320
F0.0016025641025641025
sS'G_given_G'
p1321
F0.125
sa(dp1322
S'G_given_G'
p1323
F0.9992012779552716
sS'A_given_G'
p1324
F0.0007987220447284345
sa(dp1325
S'C_given_C'
p1326
F0.4043035107587769
sS'T_given_T'
p1327
F0.6656384947563233
sS'T_given_C'
p1328
F0.5956964892412232
sS'C_given_T'
p1329
F0.3343615052436768
sa(dp1330
S'A_given_A'
p1331
F1.0
sS'A_given_G'
p1332
F1.0
sa(dp1333
S'T_given_T'
p1334
F0.9984006397441024
sS'T_given_C'
p1335
F1.0
sS'C_given_T'
p1336
F0.001599360255897641
sa(dp1337
S'C_given_C'
p1338
F0.9996006389776357
sS'T_given_C'
p1339
F0.00039936102236421724
sa(dp1340
S'A_given_G'
p1341
F1.0
sS'A_given_A'
p1342
F0.9988004798080768
sS'G_given_A'
p1343
F0.0011995201919232307
sa(dp1344
S'A_given_G'
p1345
F0.002398081534772182
sS'G_given_G'
p1346
F0.9976019184652277
sS'G_given_A'
p1347
F1.0
sa(dp1348
S'A_given_C'
p1349
F0.00039936102236421724
sS'C_given_C'
p1350
F0.9996006389776357
sa(dp1351
S'C_given_C'
p1352
F1.0
sS'C_given_T'
p1353
F1.0
sa(dp1354
S'C_given_C'
p1355
F1.0
sS'C_given_T'
p1356
F1.0
sa(dp1357
S'C_given_A'
p1358
F1.0
sS'A_given_C'
p1359
F0.0007990411506192569
sS'C_given_C'
p1360
F0.9992009588493808
sa(dp1361
S'A_given_A'
p1362
F1.0
sS'A_given_G'
p1363
F1.0
sa(dp1364
S'T_given_T'
p1365
F1.0
sS'T_given_A'
p1366
F1.0
sa(dp1367
S'T_given_T'
p1368
F1.0
sS'T_given_C'
p1369
F1.0
sa(dp1370
S'T_given_T'
p1371
F0.9996006389776357
sS'C_given_T'
p1372
F0.00039936102236421724
sa(dp1373
S'A_given_G'
p1374
F0.5952380952380952
sS'A_given_A'
p1375
F0.6971153846153847
sS'G_given_A'
p1376
F0.3028846153846154
sS'G_given_G'
p1377
F0.4047619047619047
sa(dp1378
S'T_given_T'
p1379
F1.0
sS'T_given_C'
p1380
F1.0
sa(dp1381
S'C_given_C'
p1382
F0.9996006389776357
sS'T_given_C'
p1383
F0.00039936102236421724
sa(dp1384
S'C_given_C'
p1385
F0.9996004794246904
sS'T_given_C'
p1386
F0.00039952057530962844
sS'C_given_T'
p1387
F1.0
sa(dp1388
S'T_given_T'
p1389
F1.0
sS'T_given_C'
p1390
F1.0
sa(dp1391
S'C_given_C'
p1392
F0.99919935948759
sS'T_given_C'
p1393
F0.0008006405124099279
sS'C_given_T'
p1394
F1.0
sa(dp1395
S'A_given_G'
p1396
F0.00039952057530962844
sS'G_given_G'
p1397
F0.9996004794246904
sS'G_given_A'
p1398
F1.0
sa(dp1399
S'T_given_T'
p1400
F0.9996003197442046
sS'T_given_C'
p1401
F1.0
sS'C_given_T'
p1402
F0.0003996802557953637
sa(dp1403
S'G_given_T'
p1404
F0.00039936102236421724
sS'T_given_T'
p1405
F0.9996006389776357
sa(dp1406
S'C_given_C'
p1407
F0.9996006389776357
sS'T_given_C'
p1408
F0.00039936102236421724
sa(dp1409
S'T_given_T'
p1410
F0.9996004794246904
sS'T_given_C'
p1411
F1.0
sS'C_given_T'
p1412
F0.00039952057530962844
sa(dp1413
S'A_given_A'
p1414
F0.9996006389776357
sS'G_given_A'
p1415
F0.00039936102236421724
sa(dp1416
S'G_given_G'
p1417
F1.0
sS'G_given_A'
p1418
F1.0
sa(dp1419
S'G_given_T'
p1420
F0.00039936102236421724
sS'T_given_T'
p1421
F0.9996006389776357
sa(dp1422
S'G_given_G'
p1423
F1.0
sS'G_given_C'
p1424
F1.0
sa(dp1425
S'C_given_C'
p1426
F1.0
sS'C_given_T'
p1427
F1.0
sa(dp1428
S'C_given_A'
p1429
F0.00039952057530962844
sS'A_given_C'
p1430
F1.0
sS'A_given_A'
p1431
F0.9996004794246904
sa(dp1432
S'A_given_A'
p1433
F0.9992012779552716
sS'G_given_A'
p1434
F0.0007987220447284345
sa(dp1435
S'T_given_T'
p1436
F0.9996006389776357
sS'C_given_T'
p1437
F0.00039936102236421724
sa(dp1438
S'C_given_C'
p1439
F0.9988014382740712
sS'C_given_G'
p1440
F1.0
sS'G_given_C'
p1441
F0.0011985617259288853
sa(dp1442
S'C_given_C'
p1443
F0.40274599542334094
sS'T_given_T'
p1444
F0.6687116564417178
sS'T_given_C'
p1445
F0.597254004576659
sS'C_given_T'
p1446
F0.3312883435582822
sa(dp1447
S'C_given_C'
p1448
F0.9996004794246904
sS'T_given_C'
p1449
F0.00039952057530962844
sS'C_given_T'
p1450
F1.0
sa(dp1451
S'A_given_C'
p1452
F1.0
sS'A_given_A'
p1453
F1.0
sa(dp1454
S'G_given_G'
p1455
F1.0
sS'G_given_A'
p1456
F1.0
sa(dp1457
S'A_given_G'
p1458
F0.0007993605115907274
sS'G_given_G'
p1459
F0.9992006394884093
sS'G_given_A'
p1460
F1.0
sa(dp1461
S'C_given_C'
p1462
F0.08
sS'T_given_T'
p1463
F0.9907220653489309
sS'T_given_C'
p1464
F0.92
sS'C_given_T'
p1465
F0.009277934651068978
sa(dp1466
S'T_given_T'
p1467
F1.0
sS'T_given_C'
p1468
F1.0
sa(dp1469
S'G_given_G'
p1470
F0.9988019169329073
sS'A_given_G'
p1471
F0.0011980830670926517
sa(dp1472
S'T_given_T'
p1473
F1.0
sS'T_given_C'
p1474
F1.0
sa(dp1475
S'T_given_T'
p1476
F1.0
sS'T_given_C'
p1477
F1.0
sa(dp1478
S'C_given_C'
p1479
F0.9899234179766223
sS'T_given_T'
p1480
F0.043478260869565216
sS'T_given_C'
p1481
F0.01007658202337767
sS'C_given_T'
p1482
F0.9565217391304348
sa(dp1483
S'C_given_C'
p1484
F0.4038231780167264
sS'T_given_T'
p1485
F0.6964607078584283
sS'T_given_C'
p1486
F0.5961768219832736
sS'C_given_T'
p1487
F0.30353929214157166
sa(dp1488
S'C_given_C'
p1489
F0.9992006394884093
sS'T_given_C'
p1490
F0.0007993605115907274
sS'C_given_T'
p1491
F1.0
sa(dp1492
S'C_given_C'
p1493
F0.9992009588493808
sS'T_given_C'
p1494
F0.0007990411506192569
sS'C_given_T'
p1495
F1.0
sa(dp1496
S'T_given_T'
p1497
F1.0
sS'T_given_C'
p1498
F1.0
sa(dp1499
S'A_given_A'
p1500
F1.0
sS'A_given_G'
p1501
F1.0
sa(dp1502
S'T_given_T'
p1503
F1.0
sS'T_given_C'
p1504
F1.0
sa(dp1505
S'T_given_T'
p1506
F0.9975990396158464
sS'T_given_C'
p1507
F1.0
sS'C_given_T'
p1508
F0.0024009603841536613
sa(dp1509
S'G_given_T'
p1510
F0.00039936102236421724
sS'T_given_T'
p1511
F0.9996006389776357
sa(dp1512
S'T_given_T'
p1513
F0.9996006389776357
sS'C_given_T'
p1514
F0.00039936102236421724
sa(dp1515
S'T_given_T'
p1516
F0.9992009588493808
sS'T_given_C'
p1517
F1.0
sS'C_given_T'
p1518
F0.0007990411506192569
sa(dp1519
S'A_given_G'
p1520
F0.4282006920415225
sS'A_given_A'
p1521
F0.6535608308605341
sS'G_given_A'
p1522
F0.3464391691394658
sS'G_given_G'
p1523
F0.5717993079584774
sa(dp1524
S'T_given_T'
p1525
F0.9996006389776357
sS'C_given_T'
p1526
F0.00039936102236421724
sa(dp1527
S'A_given_G'
p1528
F1.0
sS'A_given_A'
p1529
F0.9967961553864637
sS'G_given_A'
p1530
F0.0032038446135362435
sa(dp1531
S'A_given_G'
p1532
F0.003198720511795282
sS'G_given_G'
p1533
F0.9968012794882047
sS'G_given_A'
p1534
F1.0
sa(dp1535
S'T_given_G'
p1536
F1.0
sS'T_given_T'
p1537
F1.0
sa(dp1538
S'G_given_T'
p1539
F1.0
sS'G_given_G'
p1540
F1.0
sa(dp1541
S'C_given_C'
p1542
F0.08333333333333333
sS'T_given_T'
p1543
F0.989516129032258
sS'T_given_C'
p1544
F0.9166666666666666
sS'C_given_T'
p1545
F0.010483870967741934
sa(dp1546
S'G_given_G'
p1547
F1.0
sS'G_given_C'
p1548
F1.0
sa(dp1549
S'T_given_T'
p1550
F0.9996004794246904
sS'T_given_C'
p1551
F1.0
sS'C_given_T'
p1552
F0.00039952057530962844
sa(dp1553
S'G_given_G'
p1554
F1.0
sS'G_given_A'
p1555
F1.0
sa(dp1556
S'A_given_G'
p1557
F0.6002386634844868
sS'A_given_A'
p1558
F0.6962785114045619
sS'G_given_A'
p1559
F0.3037214885954382
sS'G_given_G'
p1560
F0.39976133651551315
sa(dp1561
S'C_given_C'
p1562
F1.0
sS'C_given_T'
p1563
F1.0
sa(dp1564
S'T_given_T'
p1565
F0.9996006389776357
sS'A_given_T'
p1566
F0.00039936102236421724
sa(dp1567
S'A_given_G'
p1568
F1.0
sS'A_given_A'
p1569
F0.9992009588493808
sS'G_given_A'
p1570
F0.0007990411506192569
sa(dp1571
S'T_given_T'
p1572
F0.996802557953637
sS'T_given_C'
p1573
F1.0
sS'C_given_T'
p1574
F0.0031974420463629096
sa(dp1575
S'T_given_T'
p1576
F1.0
sS'T_given_C'
p1577
F1.0
sa(dp1578
S'T_given_T'
p1579
F0.9996006389776357
sS'C_given_T'
p1580
F0.00039936102236421724
sa(dp1581
S'T_given_T'
p1582
F0.9980007996801279
sS'T_given_C'
p1583
F1.0
sS'C_given_T'
p1584
F0.001999200319872051
sa(dp1585
S'A_given_G'
p1586
F0.30017974835230676
sS'A_given_A'
p1587
F0.41796407185628737
sS'G_given_A'
p1588
F0.5820359281437125
sS'G_given_G'
p1589
F0.6998202516476932
sa(dp1590
S'C_given_C'
p1591
F0.967382328654005
sS'T_given_T'
p1592
F0.08536585365853658
sS'T_given_C'
p1593
F0.032617671345995046
sS'C_given_T'
p1594
F0.9146341463414633
sa(dp1595
S'G_given_G'
p1596
F0.9996006389776357
sS'A_given_G'
p1597
F0.00039936102236421724
sa(dp1598
S'T_given_G'
p1599
F1.0
sS'T_given_T'
p1600
F1.0
sa(dp1601
S'C_given_C'
p1602
F0.9992012779552716
sS'T_given_C'
p1603
F0.0007987220447284345
sa(dp1604
S'A_given_A'
p1605
F1.0
sS'A_given_G'
p1606
F1.0
sa(dp1607
S'T_given_T'
p1608
F0.9992012779552716
sS'C_given_T'
p1609
F0.0007987220447284345
sa(dp1610
S'C_given_C'
p1611
F0.047619047619047616
sS'T_given_T'
p1612
F0.9959726137736609
sS'T_given_C'
p1613
F0.9523809523809523
sS'C_given_T'
p1614
F0.004027386226339105
sa(dp1615
S'T_given_TAGA'
p1616
F0.001997602876548142
sS'TAGA_given_T'
p1617
F1.0
sS'TAGA_given_TAGA'
p1618
F0.998002397123452
sa(dp1619
S'T_given_T'
p1620
F1.0
sS'T_given_C'
p1621
F1.0
sa(dp1622
S'A_given_G'
p1623
F0.00039952057530962844
sS'G_given_G'
p1624
F0.9996004794246904
sS'G_given_A'
p1625
F1.0
sa(dp1626
S'G_given_G'
p1627
F0.9996006389776357
sS'A_given_G'
p1628
F0.00039936102236421724
sa(dp1629
S'T_given_T'
p1630
F1.0
sS'T_given_C'
p1631
F1.0
sa(dp1632
S'A_given_A'
p1633
F1.0
sS'A_given_G'
p1634
F1.0
sa(dp1635
S'T_given_G'
p1636
F1.0
sS'T_given_T'
p1637
F1.0
sa(dp1638
S'G_given_G'
p1639
F0.9996006389776357
sS'A_given_G'
p1640
F0.00039936102236421724
sa(dp1641
S'A_given_A'
p1642
F0.9992012779552716
sS'G_given_A'
p1643
F0.0007987220447284345
sa(dp1644
S'C_given_C'
p1645
F0.9996006389776357
sS'T_given_C'
p1646
F0.00039936102236421724
sa(dp1647
S'G_given_G'
p1648
F0.9996006389776357
sS'A_given_G'
p1649
F0.00039936102236421724
sa(dp1650
S'A_given_C'
p1651
F0.00039936102236421724
sS'C_given_C'
p1652
F0.9996006389776357
sa(dp1653
S'A_given_A'
p1654
F1.0
sS'A_given_G'
p1655
F1.0
sa(dp1656
S'T_given_T'
p1657
F0.9992009588493808
sS'T_given_C'
p1658
F1.0
sS'C_given_T'
p1659
F0.0007990411506192569
sa(dp1660
S'C_given_C'
p1661
F0.9996006389776357
sS'T_given_C'
p1662
F0.00039936102236421724
sa(dp1663
S'G_given_G'
p1664
F0.9992012779552716
sS'A_given_G'
p1665
F0.0007987220447284345
sa(dp1666
S'G_given_G'
p1667
F1.0
sS'G_given_A'
p1668
F1.0
sa(dp1669
S'A_given_A'
p1670
F0.9996006389776357
sS'G_given_A'
p1671
F0.00039936102236421724
sa(dp1672
S'A_given_C'
p1673
F1.0
sS'A_given_A'
p1674
F1.0
sa(dp1675
S'C_given_C'
p1676
F1.0
sS'C_given_G'
p1677
F1.0
sa(dp1678
S'C_given_A'
p1679
F0.0028022417934347476
sS'A_given_C'
p1680
F1.0
sS'A_given_A'
p1681
F0.9971977582065652
sa(dp1682
S'C_given_C'
p1683
F0.03571428571428571
sS'T_given_T'
p1684
F0.9791666666666666
sS'T_given_C'
p1685
F0.9642857142857143
sS'C_given_T'
p1686
F0.020833333333333332
sa(dp1687
S'C_given_C'
p1688
F1.0
sS'C_given_T'
p1689
F1.0
sa(dp1690
S'C_given_C'
p1691
F0.9996006389776357
sS'T_given_C'
p1692
F0.00039936102236421724
sa(dp1693
S'T_given_T'
p1694
F0.9992009588493808
sS'T_given_C'
p1695
F1.0
sS'C_given_T'
p1696
F0.0007990411506192569
sa(dp1697
S'C_given_C'
p1698
F0.9996006389776357
sS'G_given_C'
p1699
F0.00039936102236421724
sa(dp1700
S'T_given_T'
p1701
F0.9996006389776357
sS'C_given_T'
p1702
F0.00039936102236421724
sa(dp1703
S'G_given_G'
p1704
F1.0
sS'G_given_A'
p1705
F1.0
sa(dp1706
S'C_given_C'
p1707
F0.9996004794246904
sS'T_given_C'
p1708
F0.00039952057530962844
sS'C_given_T'
p1709
F1.0
sa(dp1710
S'C_given_C'
p1711
F1.0
sS'C_given_T'
p1712
F1.0
sa(dp1713
S'C_given_C'
p1714
F0.9996006389776357
sS'T_given_C'
p1715
F0.00039936102236421724
sa(dp1716
S'A_given_A'
p1717
F1.0
sS'A_given_G'
p1718
F1.0
sa(dp1719
S'C_given_C'
p1720
F0.9988009592326139
sS'T_given_C'
p1721
F0.001199040767386091
sS'C_given_T'
p1722
F1.0
sa(dp1723
S'A_given_C'
p1724
F1.0
sS'A_given_A'
p1725
F1.0
sa(dp1726
S'A_given_C'
p1727
F0.00039936102236421724
sS'C_given_C'
p1728
F0.9996006389776357
sa(dp1729
S'A_given_A'
p1730
F1.0
sS'A_given_T'
p1731
F1.0
sa(dp1732
S'G_given_G'
p1733
F0.9996006389776357
sS'A_given_G'
p1734
F0.00039936102236421724
sa(dp1735
S'A_given_G'
p1736
F0.00039952057530962844
sS'G_given_G'
p1737
F0.9996004794246904
sS'G_given_A'
p1738
F1.0
sa(dp1739
S'C_given_C'
p1740
F0.9964028776978417
sS'T_given_C'
p1741
F0.003597122302158273
sS'C_given_T'
p1742
F1.0
sa(dp1743
S'G_given_G'
p1744
F0.9996006389776357
sS'A_given_G'
p1745
F0.00039936102236421724
sa(dp1746
S'G_given_T'
p1747
F0.8571428571428571
sS'T_given_T'
p1748
F0.14285714285714285
sS'G_given_G'
p1749
F0.9971966359631558
sS'T_given_G'
p1750
F0.002803364036844213
sa(dp1751
S'T_given_T'
p1752
F1.0
sS'T_given_C'
p1753
F1.0
sa(dp1754
S'G_given_G'
p1755
F1.0
sS'G_given_A'
p1756
F1.0
sa(dp1757
S'G_given_G'
p1758
F1.0
sS'G_given_A'
p1759
F1.0
sa(dp1760
S'A_given_C'
p1761
F1.0
sS'A_given_A'
p1762
F1.0
sa(dp1763
S'A_given_C'
p1764
F0.00039936102236421724
sS'C_given_C'
p1765
F0.9996006389776357
sa(dp1766
S'G_given_G'
p1767
F1.0
sS'G_given_A'
p1768
F1.0
sa(dp1769
S'C_given_C'
p1770
F0.9874696847210994
sS'T_given_T'
p1771
F0.06666666666666667
sS'T_given_C'
p1772
F0.012530315278900564
sS'C_given_T'
p1773
F0.9333333333333333
sa(dp1774
S'G_given_T'
p1775
F1.0
sS'G_given_G'
p1776
F1.0
sa(dp1777
S'G_given_G'
p1778
F1.0
sS'G_given_A'
p1779
F1.0
sa(dp1780
S'C_given_C'
p1781
F1.0
sS'C_given_T'
p1782
F1.0
sa(dp1783
S'A_given_G'
p1784
F0.0012004801920768306
sS'G_given_G'
p1785
F0.9987995198079231
sS'G_given_A'
p1786
F1.0
sa(dp1787
S'A_given_A'
p1788
F0.9996006389776357
sS'G_given_A'
p1789
F0.00039936102236421724
sa(dp1790
S'G_given_G'
p1791
F1.0
sS'G_given_A'
p1792
F1.0
sa(dp1793
S'G_given_G'
p1794
F0.9996006389776357
sS'C_given_G'
p1795
F0.00039936102236421724
sa(dp1796
S'C_given_C'
p1797
F0.9996006389776357
sS'T_given_C'
p1798
F0.00039936102236421724
sa(dp1799
S'C_given_A'
p1800
F1.0
sS'C_given_C'
p1801
F1.0
sa(dp1802
S'G_given_G'
p1803
F1.0
sS'G_given_A'
p1804
F1.0
sa(dp1805
S'G_given_G'
p1806
F0.9996006389776357
sS'A_given_G'
p1807
F0.00039936102236421724
sa(dp1808
S'A_given_C'
p1809
F0.00039936102236421724
sS'C_given_C'
p1810
F0.9996006389776357
sa(dp1811
S'G_given_G'
p1812
F1.0
sS'G_given_A'
p1813
F1.0
sa(dp1814
S'A_given_G'
p1815
F0.8888888888888888
sS'A_given_A'
p1816
F0.9935871743486975
sS'G_given_A'
p1817
F0.006412825651302605
sS'G_given_G'
p1818
F0.1111111111111111
sa(dp1819
S'A_given_A'
p1820
F1.0
sS'A_given_G'
p1821
F1.0
sa(dp1822
S'T_given_G'
p1823
F1.0
sS'T_given_T'
p1824
F1.0
sa.