((lp0
(dp1
S'C'
p2
I2501
sS'T'
p3
I3
sa(dp4
g2
I2491
sg3
I13
sa(dp5
S'A'
p6
I1
sS'G'
p7
I2503
sa(dp8
g3
I1
sg7
I2503
sa(dp9
g6
I2503
sg7
I1
sa(dp10
g6
I18
sS'AAAG'
p11
I2486
sa(dp12
g6
I2145
sg7
I359
sa(dp13
g6
I514
sg7
I1990
sa(dp14
g6
I2502
sg2
I2
sa(dp15
g2
I2496
sg3
I8
sa(dp16
g6
I2
sg7
I2502
sa(dp17
g6
I2502
sg7
I2
sa(dp18
g2
I2503
sg3
I1
sa(dp19
g2
I2503
sg7
I1
sa(dp20
g6
I2500
sg7
I4
sa(dp21
g2
I1
sg7
I2503
sa(dp22
g3
I2495
sg7
I9
sa(dp23
g2
I2
sg3
I2502
sa(dp24
g6
I2504
sa(dp25
g2
I2503
sg3
I1
sa(dp26
g2
I2503
sg3
I1
sa(dp27
g2
I1
sg3
I2503
sa(dp28
g6
I2504
sa(dp29
g2
I1
sg3
I2503
sa(dp30
g6
I2504
sa(dp31
g6
I2503
sg7
I1
sa(dp32
g2
I1
sg3
I2503
sa(dp33
g7
I2504
sa(dp34
g6
I1
sg7
I2503
sa(dp35
g7
I2504
sa(dp36
g6
I2321
sg2
I183
sa(dp37
g6
I4
sg3
I2500
sa(dp38
g6
I2502
sg2
I2
sa(dp39
g2
I2504
sa(dp40
g7
I2504
sa(dp41
g3
I2504
sa(dp42
g2
I2503
sg3
I1
sa(dp43
g6
I2499
sg7
I5
sa(dp44
g2
I1
sg3
I2503
sa(dp45
g6
I2503
sg3
I1
sa(dp46
g6
I1851
sg2
I653
sa(dp47
g2
I2502
sg3
I2
sa(dp48
g6
I3
sg2
I2501
sa(dp49
g2
I1
sg7
I2503
sa(dp50
g6
I2503
sg3
I1
sa(dp51
g2
I1
sg3
I2503
sa(dp52
g6
I2494
sg7
I10
sa(dp53
g6
I1
sg2
I2503
sa(dp54
g6
I2502
sg7
I2
sa(dp55
g6
I2321
sg7
I183
sa(dp56
g7
I2504
sa(dp57
g6
I2504
sa(dp58
g2
I1
sg3
I2503
sa(dp59
g6
I2504
sa(dp60
g6
I1
sg7
I2503
sa(dp61
g3
I1
sg7
I2503
sa(dp62
g2
I2504
sa(dp63
g6
I1
sg7
I2503
sa(dp64
g6
I2503
sg2
I1
sa(dp65
g6
I2503
sg7
I1
sa(dp66
g2
I26
sg3
I2478
sa(dp67
g6
I2503
sg7
I1
sa(dp68
g2
I2
sg3
I2502
sa(dp69
g2
I5
sg3
I2499
sa(dp70
g2
I2503
sg3
I1
sa(dp71
g3
I2504
sa(dp72
g2
I1
sg3
I2503
sa(dp73
g6
I2503
sg7
I1
sa(dp74
g7
I2504
sa(dp75
g7
I2504
sa(dp76
g6
I1
sg3
I2503
sa(dp77
g2
I2502
sg3
I2
sa(dp78
g6
I2502
sg3
I2
sa(dp79
g6
I2503
sg7
I1
sa(dp80
g6
I2504
sa(dp81
g2
I1
sg3
I2503
sa(dp82
g2
I183
sg3
I2321
sa(dp83
g6
I2504
sa(dp84
g6
I2494
sg7
I10
sa(dp85
g6
I2504
sa(dp86
g6
I2501
sg2
I3
sa(dp87
g6
I2504
sa(dp88
g3
I2504
sa(dp89
g6
I2503
sg7
I1
sa(dp90
g6
I2504
sa(dp91
g2
I6
sg3
I2498
sa(dp92
g7
I2504
sa(dp93
g3
I2504
sa(dp94
g6
I1
sg3
I2503
sa(dp95
g7
I2504
sa(dp96
g6
I2
sg7
I2502
sa(dp97
g6
I1
sg7
I2503
sa(dp98
g6
I6
sg3
I2498
sa(dp99
g2
I2498
sg3
I6
sa(dp100
g6
I2503
sg7
I1
sa(dp101
g6
I2498
sg3
I6
sa(dp102
g6
I2305
sg7
I199
sa(dp103
g2
I2503
sg7
I1
sa(dp104
g6
I2504
sa(dp105
g7
I2504
sa(dp106
g3
I2504
sa(dp107
g2
I2504
sa(dp108
g6
I2504
sa(dp109
g7
I2504
sa(dp110
g2
I16
sg3
I2488
sa(dp111
g6
I2504
sa(dp112
g6
I2504
sa(dp113
g2
I1
sg3
I2503
sa(dp114
g7
I2504
sa(dp115
g6
I1845
sg7
I659
sa(dp116
g2
I4
sg3
I2500
sa(dp117
g6
I2503
sg7
I1
sa(dp118
g6
I2501
sg7
I3
sa(dp119
g6
I1
sg7
I2503
sa(dp120
g2
I2501
sg3
I3
sa(dp121
g6
I2
sg7
I2502
sa(dp122
g2
I2504
sa(dp123
g6
I2504
sa(dp124
g2
I410
sg3
I2094
sa(dp125
g6
I7
sg7
I2497
sa(dp126
g6
I2504
sa(dp127
g3
I2504
sa(dp128
g7
I2504
sa(dp129
g6
I2501
sg2
I3
sa(dp130
g6
I2496
sg2
I8
sa(dp131
g2
I2504
sa(dp132
g6
I2497
sg7
I7
sa(dp133
g2
I2496
sg3
I8
sa(dp134
g6
I2504
sa(dp135
g3
I11
sg7
I2493
sa(dp136
g6
I1
sg2
I2503
sa(dp137
g6
I2503
sg7
I1
sa(dp138
g2
I2503
sg7
I1
sa(dp139
g6
I2504
sa(dp140
g6
I2504
sa(dp141
g6
I2504
sa(dp142
g6
I66
sg7
I2438
sa(dp143
g6
I2504
sa(dp144
g2
I2504
sa(dp145
g6
I2
sg7
I2502
sa(dp146
g2
I1
sg3
I2503
sa(dp147
g2
I2503
sg7
I1
sa(dp148
g6
I5
sg2
I2499
sa(dp149
g6
I2502
sg2
I2
sa(dp150
g6
I2503
sg7
I1
sa(dp151
g6
I2501
sg2
I3
sa(dp152
g2
I1
sg3
I2503
sa(dp153
g6
I2503
sg7
I1
sa(dp154
g2
I2
sg3
I2502
sa(dp155
g6
I2504
sa(dp156
g2
I2503
sg3
I1
sa(dp157
g6
I2504
sa(dp158
g6
I2
sg7
I2502
sa(dp159
g6
I2504
sa(dp160
g2
I2503
sg3
I1
sa(dp161
g2
I2499
sg3
I5
sa(dp162
g2
I2500
sg3
I4
sa(dp163
g7
I2504
sa(dp164
g6
I1
sg7
I2503
sa(dp165
g6
I2504
sa(dp166
g6
I2488
sg7
I16
sa(dp167
g2
I2503
sg3
I1
sa(dp168
g6
I1
sg7
I2503
sa(dp169
g2
I2503
sg7
I1
sa(dp170
g6
I2502
sg2
I2
sa(dp171
g2
I2504
sa(dp172
g6
I1
sg7
I2503
sa(dp173
g7
I2504
sa(dp174
g3
I2500
sg7
I4
sa(dp175
g7
I2504
sa(dp176
g6
I16
sg7
I2488
sa(dp177
g3
I2504
sa(dp178
g2
I2503
sg7
I1
sa(dp179
g2
I2478
sg3
I26
sa(dp180
g7
I2504
sa(dp181
g6
I2503
sg2
I1
sa(dp182
g6
I2503
sg7
I1
sa(dp183
g2
I1
sg3
I2503
sa(dp184
g7
I2504
sa(dp185
g6
I2504
sa(dp186
g6
I3
sg7
I2501
sa(dp187
g6
I2504
sa(dp188
g6
I2504
sa(dp189
g3
I2504
sa(dp190
g2
I2502
sg3
I2
sa(dp191
g2
I2501
sg3
I3
sa(dp192
g3
I1
sg7
I2503
sa(dp193
g3
I2504
sa(dp194
g6
I5
sg2
I2499
sa(dp195
g7
I2504
sa(dp196
g6
I2503
sg7
I1
sa(dp197
g2
I2501
sg3
I3
sa(dp198
g6
I8
sg7
I2496
sa(dp199
g6
I2
sg7
I2502
sa(dp200
g6
I2485
sg7
I19
sa(dp201
g3
I5
sg7
I2499
sa(dp202
g2
I2504
sa(dp203
g2
I2438
sg7
I66
sa(dp204
g2
I2504
sa(dp205
g6
I2504
sa(dp206
g3
I2504
sa(dp207
g6
I2504
sa(dp208
g7
I2504
sa(dp209
g3
I1
sg7
I2503
sa(dp210
g6
I2504
sa(dp211
g6
I2503
sg7
I1
sa(dp212
g6
I2504
sa(dp213
g6
I2503
sg3
I1
sa(dp214
g2
I1
sg3
I2503
sa(dp215
g6
I2503
sg2
I1
sa(dp216
g2
I16
sg7
I2488
sa(dp217
g2
I2501
sg7
I3
sa(dp218
g3
I1
sg7
I2503
sa(dp219
g7
I2504
sa(dp220
g6
I5
sg2
I2499
sa(dp221
g6
I1932
sg7
I572
sa(dp222
g6
I2503
sg2
I1
sa(dp223
g6
I2480
sg7
I24
sa(dp224
g6
I2504
sa(dp225
g2
I2504
sa(dp226
g2
I2439
sg3
I65
sa(dp227
g3
I2503
sg7
I1
sa(dp228
g2
I49
sg3
I2455
sa(dp229
g2
I2503
sg3
I1
sa(dp230
g6
I1
sg7
I2503
sa(dp231
g2
I2504
sa(dp232
g2
I2503
sg3
I1
sa(dp233
g2
I2503
sg3
I1
sa(dp234
g6
I10
sg7
I2494
sa(dp235
g2
I2503
sg3
I1
sa(dp236
g6
I2504
sa(dp237
g6
I2503
sg7
I1
sa(dp238
g6
I2504
sa(dp239
g3
I2504
sa(dp240
g6
I2503
sg7
I1
sa(dp241
g6
I1
sg7
I2503
sa(dp242
g3
I2504
sa(dp243
g2
I1
sg3
I2503
sa(dp244
g7
I2504
sa(dp245
g7
I2504
sa(dp246
g6
I2503
sg7
I1
sa(dp247
g3
I1
sg7
I2503
sa(dp248
g6
I2
sg7
I2502
sa(dp249
g3
I6
sg7
I2498
sa(dp250
g3
I1
sg7
I2503
sa(dp251
g3
I2504
sa(dp252
g7
I2504
sa(dp253
g6
I2469
sg2
I35
sa(dp254
g6
I1
sg7
I2503
sa(dp255
g2
I5
sg3
I2499
sa(dp256
g6
I2503
sg7
I1
sa(dp257
g7
I2504
sa(dp258
g6
I2504
sa(dp259
g6
I2504
sa(dp260
g2
I2504
sa(dp261
g6
I1
sg7
I2503
sa(dp262
g6
I2478
sg3
I26
sa(dp263
g2
I1
sg3
I2503
sa(dp264
g3
I3
sg7
I2501
sa(dp265
g6
I25
sg7
I2479
sa(dp266
g6
I1
sg7
I2503
sa(dp267
g2
I2503
sg7
I1
sa(dp268
g2
I2504
sa(dp269
g6
I2504
sa(dp270
g7
I2504
sa(dp271
g2
I1
sg7
I2503
sa(dp272
g3
I2504
sa(dp273
g3
I2504
sa(dp274
g2
I2503
sg3
I1
sa(dp275
g6
I2504
sa(dp276
g7
I2504
sa(dp277
g2
I2503
sg3
I1
sa(dp278
g6
I2504
sa(dp279
g2
I1
sg7
I2503
sa(dp280
g2
I2503
sg3
I1
sa(dp281
g2
I2
sg7
I2502
sa(dp282
g6
I2504
sa(dp283
g6
I2503
sg3
I1
sa(dp284
g6
I16
sg7
I2488
sa(dp285
g6
I2499
sg7
I5
sa(dp286
g2
I2504
sa(dp287
g2
I2503
sg3
I1
sa(dp288
g7
I2504
sa(dp289
g2
I2504
sa(dp290
g2
I2504
sa(dp291
g6
I2504
sa(dp292
g6
I2493
sg3
I11
sa(dp293
g2
I2503
sg7
I1
sa(dp294
g2
I2504
sa(dp295
g6
I1
sg7
I2503
sa(dp296
g6
I2
sg7
I2502
sa(dp297
g2
I2501
sg3
I3
sa(dp298
g2
I2504
sa(dp299
g6
I2395
sg7
I109
sa(dp300
g3
I2504
sa(dp301
g2
I2504
sa(dp302
g2
I2503
sg3
I1
sa(dp303
g7
I2504
sa(dp304
g2
I2504
sa(dp305
g6
I2105
sg2
I399
sa(dp306
g7
I2504
sa(dp307
g6
I3
sg7
I2501
sa(dp308
g7
I2504
sa(dp309
g2
I1
sg3
I2503
sa(dp310
g6
I1
sg7
I2503
sa(dp311
g2
I2483
sg7
I21
sa(dp312
g2
I1
sg3
I2503
sa(dp313
g6
I1961
sg7
I543
sa(dp314
g6
I2499
sg7
I5
sa(dp315
g6
I2501
sg7
I3
sa(dp316
g6
I40
sg2
I2464
sa(dp317
g6
I2013
sg7
I491
sa(dp318
g6
I2
sg7
I2502
sa(dp319
g6
I2501
sS'AT'
p320
I3
sa(dp321
g2
I2503
sg3
I1
sa(dp322
g6
I2504
sa(dp323
g2
I2503
sg3
I1
sa(dp324
g2
I2503
sg3
I1
sa(dp325
g6
I2503
sg7
I1
sa(dp326
g6
I2500
sg3
I4
sa(dp327
g6
I570
sS'AT'
p328
I1934
sa(dp329
g2
I6
sg3
I2498
sa(dp330
g6
I2495
sg7
I9
sa(dp331
g6
I2492
sg7
I12
sa(dp332
g2
I1
sg3
I2503
sa(dp333
g6
I17
sg2
I2487
sa(dp334
g6
I2503
sg7
I1
sa(dp335
g2
I2492
sg3
I12
sa(dp336
g2
I2483
sg3
I21
sa(dp337
g2
I2
sg3
I2502
sa(dp338
g6
I843
sg7
I1661
sa(dp339
g2
I1
sg7
I2503
sa(dp340
g6
I1
sg7
I2503
sa(dp341
g6
I2503
sg7
I1
sa(dp342
g3
I2504
sa(dp343
g2
I2504
sa(dp344
g2
I2495
sg3
I9
sa(dp345
g2
I1
sg3
I2503
sa(dp346
g6
I2502
sg7
I2
sa(dp347
g2
I2499
sg3
I5
sa(dp348
g6
I2503
sg7
I1
sa(dp349
g2
I1201
sS'CT'
p350
I1303
sa(dp351
g6
I17
sg7
I2487
sa(dp352
g2
I6
sg3
I2498
sa(dp353
g6
I1
sg3
I2503
sa(dp354
g2
I2504
sa(dp355
g6
I1
sg7
I2503
sa(dp356
g2
I2503
sg3
I1
sa(dp357
g2
I3
sg3
I2501
sa(dp358
g7
I2504
sa(dp359
g2
I1
sg3
I2503
sa(dp360
g3
I2504
sa(dp361
g6
I1
sg3
I2503
sa(dp362
g2
I1
sg3
I2503
sa(dp363
g6
I807
sg2
I1697
sa(dp364
g2
I1
sg3
I2503
sa(dp365
g7
I2504
sa(dp366
g2
I4
sg3
I2500
sa(dp367
g3
I2504
sa(dp368
g7
I2504
sa(dp369
g6
I1
sg7
I2503
sa(dp370
g6
I1
sg7
I2503
sa(dp371
g2
I34
sg7
I2470
sa(dp372
g6
I2503
sg3
I1
sa(dp373
g2
I2504
sa(dp374
g3
I2504
sa(dp375
g6
I2503
sg7
I1
sa(dp376
g7
I2504
sa(dp377
g7
I2504
sa(dp378
g2
I2504
sa(dp379
g2
I1
sg3
I2503
sa(dp380
g2
I2504
sa(dp381
g2
I2503
sg7
I1
sa(dp382
g7
I2504
sa(dp383
g2
I2504
sa(dp384
g2
I2476
sg3
I28
sa(dp385
g2
I1
sg3
I2503
sa(dp386
g2
I2504
sa(dp387
g6
I2496
sg7
I8
sa(dp388
g7
I2504
sa(dp389
g2
I883
sg3
I1621
sa(dp390
g6
I2503
sg7
I1
sa(dp391
g2
I3
sg3
I2501
sa(dp392
g2
I2504
sa(dp393
g6
I2501
sg7
I3
sa(dp394
g6
I2
sg7
I2502
sa(dp395
g2
I2504
sa(dp396
g2
I2503
sg3
I1
sa(dp397
g2
I2496
sg3
I8
sa(dp398
g6
I1
sg2
I2503
sa(dp399
g6
I2503
sg7
I1
sa(dp400
g6
I2
sg3
I2502
sa(dp401
g2
I1
sg3
I2503
sa(dp402
g3
I2504
sa(dp403
g6
I1664
sg7
I840
sa(dp404
g2
I1
sg3
I2503
sa(dp405
g2
I2504
sa(dp406
g2
I2503
sg3
I1
sa(dp407
g2
I1
sg3
I2503
sa(dp408
g2
I2498
sg3
I6
sa(dp409
g6
I1
sg7
I2503
sa(dp410
g2
I2
sg3
I2502
sa(dp411
g3
I2504
sa(dp412
g2
I2504
sa(dp413
g2
I1
sg3
I2503
sa(dp414
g6
I2504
sa(dp415
g6
I1
sg7
I2503
sa(dp416
g3
I2504
sa(dp417
g2
I1
sg7
I2503
sa(dp418
g2
I2501
sg3
I3
sa(dp419
g6
I2503
sg2
I1
sa(dp420
g6
I2504
sa(dp421
g3
I2504
sa(dp422
g2
I2503
sg7
I1
sa(dp423
g2
I874
sg3
I1630
sa(dp424
g2
I2503
sg3
I1
sa(dp425
g6
I2503
sg2
I1
sa(dp426
g6
I1
sg7
I2503
sa(dp427
g6
I2
sg7
I2502
sa(dp428
g2
I25
sg3
I2479
sa(dp429
g2
I1
sg3
I2503
sa(dp430
g7
I2504
sa(dp431
g2
I1
sg3
I2503
sa(dp432
g2
I1
sg3
I2503
sa(dp433
g2
I2481
sg3
I23
sa(dp434
g2
I837
sg3
I1667
sa(dp435
g2
I2502
sg3
I2
sa(dp436
g2
I2503
sg3
I1
sa(dp437
g2
I2
sg3
I2502
sa(dp438
g6
I2503
sg7
I1
sa(dp439
g2
I1
sg3
I2503
sa(dp440
g2
I5
sg3
I2499
sa(dp441
g3
I2504
sa(dp442
g3
I2504
sa(dp443
g2
I1
sg3
I2503
sa(dp444
g6
I1348
sg7
I1156
sa(dp445
g3
I2504
sa(dp446
g6
I2497
sg7
I7
sa(dp447
g6
I3
sg7
I2501
sa(dp448
g3
I2503
sg7
I1
sa(dp449
g3
I1
sg7
I2503
sa(dp450
g2
I24
sg3
I2480
sa(dp451
g2
I1
sg7
I2503
sa(dp452
g2
I1
sg3
I2503
sa(dp453
g6
I1
sg7
I2503
sa(dp454
g6
I1666
sg7
I838
sa(dp455
g2
I2503
sg3
I1
sa(dp456
g3
I2504
sa(dp457
g6
I2503
sg7
I1
sa(dp458
g2
I2
sg3
I2502
sa(dp459
g2
I1
sg3
I2503
sa(dp460
g3
I2504
sa(dp461
g2
I3
sg3
I2501
sa(dp462
g6
I835
sg7
I1669
sa(dp463
g2
I2422
sg3
I82
sa(dp464
g7
I2504
sa(dp465
g3
I2503
sg7
I1
sa(dp466
g2
I2504
sa(dp467
g6
I2503
sg7
I1
sa(dp468
g3
I2504
sa(dp469
g2
I21
sg3
I2483
sa(dp470
S'TAGA'
p471
I2503
sg3
I1
sa(dp472
g2
I1
sg3
I2503
sa(dp473
g6
I1
sg7
I2503
sa(dp474
g7
I2504
sa(dp475
g2
I1
sg3
I2503
sa(dp476
g6
I2503
sg7
I1
sa(dp477
g3
I2503
sg7
I1
sa(dp478
g7
I2504
sa(dp479
g6
I2504
sa(dp480
g2
I2504
sa(dp481
g7
I2504
sa(dp482
g2
I2504
sa(dp483
g6
I2503
sg7
I1
sa(dp484
g2
I1
sg3
I2503
sa(dp485
g2
I2504
sa(dp486
g7
I2504
sa(dp487
g6
I1
sg7
I2503
sa(dp488
g6
I2504
sa(dp489
g6
I2503
sg2
I1
sa(dp490
g2
I2503
sg7
I1
sa(dp491
g6
I2498
sg2
I6
sa(dp492
g2
I56
sg3
I2448
sa(dp493
g2
I2503
sg3
I1
sa(dp494
g2
I2504
sa(dp495
g2
I1
sg3
I2503
sa(dp496
g2
I2504
sa(dp497
g3
I2504
sa(dp498
g6
I2
sg7
I2502
sa(dp499
g2
I2503
sg3
I1
sa(dp500
g2
I2503
sg3
I1
sa(dp501
g2
I2504
sa(dp502
g6
I2503
sg7
I1
sa(dp503
g2
I2502
sg3
I2
sa(dp504
g6
I2503
sg2
I1
sa(dp505
g2
I2504
sa(dp506
g6
I2503
sg3
I1
sa(dp507
g7
I2504
sa(dp508
g6
I1
sg7
I2503
sa(dp509
g2
I2502
sg3
I2
sa(dp510
g7
I2504
sa(dp511
g3
I7
sg7
I2497
sa(dp512
g2
I1
sg3
I2503
sa(dp513
g6
I1
sg7
I2503
sa(dp514
g6
I1
sg7
I2503
sa(dp515
g6
I2502
sg2
I2
sa(dp516
g2
I2504
sa(dp517
g6
I1
sg7
I2503
sa(dp518
g2
I2474
sg3
I30
sa(dp519
g3
I1
sg7
I2503
sa(dp520
g6
I1
sg7
I2503
sa(dp521
g2
I2503
sg3
I1
sa(dp522
g6
I5
sg7
I2499
sa(dp523
g6
I2504
sa(dp524
g6
I1
sg7
I2503
sa(dp525
g7
I2504
sa(dp526
g2
I2504
sa(dp527
g6
I1
sg2
I2503
sa(dp528
g6
I1
sg7
I2503
sa(dp529
g7
I2504
sa(dp530
g2
I2504
sa(dp531
g6
I4
sg7
I2500
sa(dp532
g6
I2495
sg7
I9
sa(dp533
g6
I2503
sg7
I1
sa(dp534
g3
I2503
sg7
I1
sa(lp535
(dp536
g2
I2502
sg3
I2
sa(dp537
g2
I2488
sg3
I16
sa(dp538
g6
I9
sg7
I2495
sa(dp539
g3
I1
sg7
I2503
sa(dp540
g6
I2504
sa(dp541
g6
I12
sS'AAAG'
p542
I2492
sa(dp543
g6
I2119
sg7
I385
sa(dp544
g6
I534
sg7
I1970
sa(dp545
g6
I2502
sg2
I2
sa(dp546
g2
I2490
sg3
I14
sa(dp547
g7
I2504
sa(dp548
g6
I2502
sg7
I2
sa(dp549
g2
I2504
sa(dp550
g2
I2504
sa(dp551
g6
I2498
sg7
I6
sa(dp552
g7
I2504
sa(dp553
g3
I2498
sg7
I6
sa(dp554
g2
I1
sg3
I2503
sa(dp555
g6
I2503
sg2
I1
sa(dp556
g2
I2502
sg3
I2
sa(dp557
g2
I2504
sa(dp558
g3
I2504
sa(dp559
g6
I2503
sg7
I1
sa(dp560
g3
I2504
sa(dp561
g6
I2502
sg7
I2
sa(dp562
g6
I2504
sa(dp563
g2
I2
sg3
I2502
sa(dp564
g6
I1
sg7
I2503
sa(dp565
g7
I2504
sa(dp566
g6
I1
sg7
I2503
sa(dp567
g6
I2318
sg2
I186
sa(dp568
g6
I4
sg3
I2500
sa(dp569
g6
I2503
sg2
I1
sa(dp570
g6
I1
sg2
I2503
sa(dp571
g6
I1
sg7
I2503
sa(dp572
g3
I2503
sg7
I1
sa(dp573
g2
I2504
sa(dp574
g6
I2497
sg7
I7
sa(dp575
g3
I2504
sa(dp576
g6
I2504
sa(dp577
g6
I1908
sg2
I596
sa(dp578
g2
I2501
sg3
I3
sa(dp579
g6
I2
sg2
I2502
sa(dp580
g7
I2504
sa(dp581
g6
I2504
sa(dp582
g3
I2504
sa(dp583
g6
I2481
sg7
I23
sa(dp584
g2
I2504
sa(dp585
g6
I2499
sg7
I5
sa(dp586
g6
I2318
sg7
I186
sa(dp587
g6
I1
sg7
I2503
sa(dp588
g6
I2503
sg7
I1
sa(dp589
g2
I1
sg3
I2503
sa(dp590
g6
I2503
sg7
I1
sa(dp591
g7
I2504
sa(dp592
g7
I2504
sa(dp593
g2
I2503
sg7
I1
sa(dp594
g7
I2504
sa(dp595
g6
I2503
sg2
I1
sa(dp596
g6
I2504
sa(dp597
g2
I15
sg3
I2489
sa(dp598
g6
I2502
sg7
I2
sa(dp599
g2
I3
sg3
I2501
sa(dp600
g2
I7
sg3
I2497
sa(dp601
g2
I2503
sg3
I1
sa(dp602
g6
I1
sg3
I2503
sa(dp603
g3
I2504
sa(dp604
g6
I2504
sa(dp605
g6
I1
sg7
I2503
sa(dp606
g6
I1
sg7
I2503
sa(dp607
g3
I2504
sa(dp608
g2
I2504
sa(dp609
g6
I2494
sg3
I10
sa(dp610
g6
I2503
sg7
I1
sa(dp611
g6
I2503
sg7
I1
sa(dp612
g2
I1
sg3
I2503
sa(dp613
g2
I185
sg3
I2319
sa(dp614
g6
I2503
sg7
I1
sa(dp615
g6
I2496
sg7
I8
sa(dp616
g6
I2503
sg7
I1
sa(dp617
g6
I2502
sg2
I2
sa(dp618
g6
I2501
sg7
I3
sa(dp619
g6
I1
sg3
I2503
sa(dp620
g6
I2504
sa(dp621
g6
I2503
sg7
I1
sa(dp622
g2
I4
sg3
I2500
sa(dp623
g6
I2
sg7
I2502
sa(dp624
g3
I2503
sg7
I1
sa(dp625
g3
I2504
sa(dp626
g6
I1
sg7
I2503
sa(dp627
g7
I2504
sa(dp628
g7
I2504
sa(dp629
g6
I6
sg3
I2498
sa(dp630
g2
I2498
sg3
I6
sa(dp631
g6
I2504
sa(dp632
g6
I2500
sg3
I4
sa(dp633
g6
I2302
sg7
I202
sa(dp634
g2
I2504
sa(dp635
g6
I2503
sg7
I1
sa(dp636
g6
I1
sg7
I2503
sa(dp637
g2
I1
sg3
I2503
sa(dp638
g2
I2503
sg3
I1
sa(dp639
g6
I2503
sg3
I1
sa(dp640
g6
I1
sg7
I2503
sa(dp641
g2
I18
sg3
I2486
sa(dp642
g6
I2503
sg3
I1
sa(dp643
g6
I2503
sg2
I1
sa(dp644
g3
I2504
sa(dp645
g6
I1
sg7
I2503
sa(dp646
g6
I1827
sg7
I677
sa(dp647
g2
I3
sg3
I2501
sa(dp648
g6
I2504
sa(dp649
g6
I2502
sg7
I2
sa(dp650
g7
I2504
sa(dp651
g2
I2503
sg3
I1
sa(dp652
g6
I6
sg7
I2498
sa(dp653
g2
I2503
sg3
I1
sa(dp654
g6
I2503
sg3
I1
sa(dp655
g2
I432
sg3
I2072
sa(dp656
g6
I10
sg7
I2494
sa(dp657
g6
I2503
sg3
I1
sa(dp658
g6
I1
sg3
I2503
sa(dp659
g6
I2
sg7
I2502
sa(dp660
g6
I2504
sa(dp661
g6
I2490
sg2
I14
sa(dp662
g6
I1
sg2
I2503
sa(dp663
g6
I2501
sg7
I3
sa(dp664
g2
I2500
sg3
I4
sa(dp665
g6
I2503
sg7
I1
sa(dp666
g3
I9
sg7
I2495
sa(dp667
g2
I2504
sa(dp668
g6
I2504
sa(dp669
g2
I2504
sa(dp670
g6
I2503
sg7
I1
sa(dp671
g6
I2503
sg7
I1
sa(dp672
g6
I2503
sg7
I1
sa(dp673
g6
I64
sg7
I2440
sa(dp674
g6
I2503
sg7
I1
sa(dp675
g2
I2502
sg3
I2
sa(dp676
g6
I1
sg7
I2503
sa(dp677
g3
I2504
sa(dp678
g2
I2504
sa(dp679
g6
I3
sg2
I2501
sa(dp680
g6
I2504
sa(dp681
g6
I2503
sg7
I1
sa(dp682
g6
I2502
sg2
I2
sa(dp683
g3
I2504
sa(dp684
g6
I2504
sa(dp685
g3
I2504
sa(dp686
g6
I2503
sg7
I1
sa(dp687
g2
I2504
sa(dp688
g6
I2503
sg7
I1
sa(dp689
g6
I1
sg7
I2503
sa(dp690
g6
I2503
sg7
I1
sa(dp691
g2
I2504
sa(dp692
g2
I2500
sg3
I4
sa(dp693
g2
I2500
sg3
I4
sa(dp694
g6
I1
sg7
I2503
sa(dp695
g7
I2504
sa(dp696
g6
I2504
sa(dp697
g6
I2486
sg7
I18
sa(dp698
g2
I2504
sa(dp699
g7
I2504
sa(dp700
g2
I2504
sa(dp701
g6
I2504
sa(dp702
g2
I2503
sg3
I1
sa(dp703
g7
I2504
sa(dp704
g6
I1
sg7
I2503
sa(dp705
g3
I2497
sg7
I7
sa(dp706
g6
I1
sg7
I2503
sa(dp707
g6
I15
sg7
I2489
sa(dp708
g2
I1
sg3
I2503
sa(dp709
g2
I2504
sa(dp710
g2
I2487
sg3
I17
sa(dp711
g6
I2
sg7
I2502
sa(dp712
g6
I2504
sa(dp713
g6
I2498
sg7
I6
sa(dp714
g3
I2504
sa(dp715
g6
I1
sg7
I2503
sa(dp716
g6
I2503
sg2
I1
sa(dp717
g6
I4
sg7
I2500
sa(dp718
g6
I2503
sg7
I1
sa(dp719
g6
I2503
sg7
I1
sa(dp720
g2
I1
sg3
I2503
sa(dp721
g2
I2494
sg3
I10
sa(dp722
g2
I2500
sg3
I4
sa(dp723
g3
I2
sg7
I2502
sa(dp724
g2
I1
sg3
I2503
sa(dp725
g6
I9
sg2
I2495
sa(dp726
g2
I1
sg7
I2503
sa(dp727
g6
I2504
sa(dp728
g2
I2501
sg3
I3
sa(dp729
g6
I11
sg7
I2493
sa(dp730
g7
I2504
sa(dp731
g6
I2489
sg7
I15
sa(dp732
g3
I3
sg7
I2501
sa(dp733
g2
I2503
sg7
I1
sa(dp734
g2
I2438
sg3
I2
sg7
I64
sa(dp735
g2
I2503
sg3
I1
sa(dp736
g6
I2503
sg7
I1
sa(dp737
g2
I1
sg3
I2503
sa(dp738
g6
I2503
sg7
I1
sa(dp739
g6
I1
sg7
I2503
sa(dp740
g7
I2504
sa(dp741
g6
I2502
sg2
I2
sa(dp742
g6
I2504
sa(dp743
g6
I2503
sg2
I1
sa(dp744
g6
I2504
sa(dp745
g3
I2504
sa(dp746
g6
I2504
sa(dp747
g2
I18
sg7
I2486
sa(dp748
g2
I2503
sg7
I1
sa(dp749
g7
I2504
sa(dp750
g6
I1
sg7
I2503
sa(dp751
g6
I2
sg2
I2502
sa(dp752
g6
I1911
sg7
I593
sa(dp753
g6
I2504
sa(dp754
g6
I2476
sg7
I28
sa(dp755
g6
I2503
sg7
I1
sa(dp756
g2
I2503
sg7
I1
sa(dp757
g2
I2448
sg3
I56
sa(dp758
g3
I2503
sg7
I1
sa(dp759
g2
I31
sg3
I2473
sa(dp760
g2
I2503
sg3
I1
sa(dp761
g7
I2504
sa(dp762
g2
I2503
sg3
I1
sa(dp763
g2
I2504
sa(dp764
g2
I2502
sg3
I2
sa(dp765
g6
I11
sg7
I2493
sa(dp766
g2
I2504
sa(dp767
g6
I2503
sg7
I1
sa(dp768
g6
I2504
sa(dp769
g6
I2503
sg7
I1
sa(dp770
g6
I1
sg3
I2503
sa(dp771
g6
I2504
sa(dp772
g7
I2504
sa(dp773
g2
I1
sg3
I2503
sa(dp774
g3
I2504
sa(dp775
g7
I2504
sa(dp776
g2
I1
sg7
I2503
sa(dp777
g6
I2501
sg7
I3
sa(dp778
g3
I2
sg7
I2502
sa(dp779
g6
I1
sg7
I2503
sa(dp780
g3
I7
sg7
I2497
sa(dp781
g7
I2504
sa(dp782
g2
I1
sg3
I2503
sa(dp783
g7
I2504
sa(dp784
g6
I2467
sg2
I37
sa(dp785
g7
I2504
sa(dp786
g2
I2
sg3
I2502
sa(dp787
g6
I2504
sa(dp788
g6
I1
sg7
I2503
sa(dp789
g6
I2503
sg2
I1
sa(dp790
g6
I2503
sg7
I1
sa(dp791
g2
I2503
sg3
I1
sa(dp792
g7
I2504
sa(dp793
g6
I2485
sg3
I19
sa(dp794
g3
I2504
sa(dp795
g3
I3
sg7
I2501
sa(dp796
g6
I25
sg7
I2479
sa(dp797
g6
I2
sg7
I2502
sa(dp798
g2
I2504
sa(dp799
g2
I2503
sg3
I1
sa(dp800
g6
I2503
sg7
I1
sa(dp801
g6
I3
sg7
I2501
sa(dp802
g7
I2504
sa(dp803
g2
I2
sg3
I2502
sa(dp804
g2
I1
sg3
I2503
sa(dp805
g2
I2504
sa(dp806
g6
I2503
sg7
I1
sa(dp807
g2
I1
sg7
I2503
sa(dp808
g2
I2504
sa(dp809
g6
I2503
sg7
I1
sa(dp810
g7
I2504
sa(dp811
g2
I2504
sa(dp812
g2
I10
sg7
I2494
sa(dp813
g6
I2502
sg7
I2
sa(dp814
g6
I2504
sa(dp815
g6
I18
sg7
I2486
sa(dp816
g6
I2502
sg7
I2
sa(dp817
g2
I2503
sg7
I1
sa(dp818
g2
I2504
sa(dp819
g6
I1
sg7
I2503
sa(dp820
g6
I1
sg2
I2503
sa(dp821
g6
I1
sg2
I2503
sa(dp822
g6
I2503
sg2
I1
sa(dp823
g6
I2493
sg3
I11
sa(dp824
g2
I2504
sa(dp825
g6
I1
sg2
I2503
sa(dp826
g7
I2504
sa(dp827
g6
I2
sg7
I2502
sa(dp828
g2
I2502
sg3
I2
sa(dp829
g2
I2503
sg3
I1
sa(dp830
g6
I2388
sg7
I116
sa(dp831
g2
I1
sg3
I2503
sa(dp832
g2
I2503
sg3
I1
sa(dp833
g2
I2504
sa(dp834
g6
I2
sg7
I2502
sa(dp835
g2
I2503
sg3
I1
sa(dp836
g6
I2098
sg2
I406
sa(dp837
g2
I1
sg7
I2503
sa(dp838
g6
I1
sg7
I2503
sa(dp839
g6
I1
sg7
I2503
sa(dp840
g2
I2
sg3
I2502
sa(dp841
g7
I2504
sa(dp842
g2
I2484
sg7
I20
sa(dp843
g3
I2504
sa(dp844
g6
I1935
sg7
I569
sa(dp845
g6
I2498
sg7
I6
sa(dp846
g6
I2501
sg7
I3
sa(dp847
g6
I43
sg2
I2461
sa(dp848
g6
I2006
sg7
I498
sa(dp849
g6
I1
sg7
I2503
sa(dp850
g6
I2504
sa(dp851
g2
I2504
sa(dp852
g6
I2503
sg7
I1
sa(dp853
g2
I2504
sa(dp854
g2
I2504
sa(dp855
g6
I2504
sa(dp856
g6
I2496
sg3
I8
sa(dp857
g6
I587
sS'AT'
p858
I1917
sa(dp859
g2
I5
sg3
I2499
sa(dp860
g6
I2491
sg7
I13
sa(dp861
g6
I2492
sg7
I12
sa(dp862
g3
I2504
sa(dp863
g6
I6
sg2
I2498
sa(dp864
g6
I2504
sa(dp865
g2
I2495
sg3
I9
sa(dp866
g2
I2483
sg3
I21
sa(dp867
g2
I3
sg3
I2501
sa(dp868
g6
I871
sg7
I1633
sa(dp869
g2
I1
sg7
I2503
sa(dp870
g7
I2504
sa(dp871
g6
I2504
sa(dp872
g2
I2
sg3
I2502
sa(dp873
g2
I2503
sg3
I1
sa(dp874
g2
I2488
sg3
I16
sa(dp875
g3
I2504
sa(dp876
g6
I2504
sa(dp877
g2
I2504
sa(dp878
g6
I2502
sg7
I2
sa(dp879
g2
I1313
sS'CT'
p880
I1191
sa(dp881
g6
I19
sg7
I2485
sa(dp882
g2
I5
sg3
I2499
sa(dp883
g3
I2504
sa(dp884
g2
I2503
sg3
I1
sa(dp885
g7
I2504
sa(dp886
g2
I2504
sa(dp887
g3
I2504
sa(dp888
g6
I1
sg7
I2503
sa(dp889
g3
I2504
sa(dp890
g2
I1
sg3
I2503
sa(dp891
g3
I2504
sa(dp892
g3
I2504
sa(dp893
g6
I818
sg2
I1686
sa(dp894
g3
I2504
sa(dp895
g6
I1
sg7
I2503
sa(dp896
g2
I3
sg3
I2501
sa(dp897
g2
I1
sg3
I2503
sa(dp898
g6
I1
sg7
I2503
sa(dp899
g7
I2504
sa(dp900
g6
I2
sg7
I2502
sa(dp901
g2
I44
sg7
I2460
sa(dp902
g6
I2504
sa(dp903
g2
I2503
sg3
I1
sa(dp904
g2
I1
sg3
I2503
sa(dp905
g6
I2504
sa(dp906
g2
I1
sg7
I2503
sa(dp907
g6
I3
sg7
I2501
sa(dp908
g2
I2503
sg3
I1
sa(dp909
g3
I2504
sa(dp910
g2
I2503
sg3
I1
sa(dp911
g2
I2504
sa(dp912
g6
I1
sg7
I2503
sa(dp913
g2
I2503
sg3
I1
sa(dp914
g2
I2476
sg3
I28
sa(dp915
g3
I2504
sa(dp916
g2
I2503
sg7
I1
sa(dp917
g6
I2499
sg7
I5
sa(dp918
g6
I2
sg7
I2502
sa(dp919
g2
I899
sg3
I1605
sa(dp920
g6
I2504
sa(dp921
g2
I4
sg3
I2500
sa(dp922
g2
I2503
sg3
I1
sa(dp923
g6
I2501
sg7
I3
sa(dp924
g6
I6
sg7
I2498
sa(dp925
g6
I1
sg2
I2503
sa(dp926
g2
I2504
sa(dp927
g2
I2504
sa(dp928
g6
I2
sg2
I2502
sa(dp929
g6
I2504
sa(dp930
g3
I2504
sa(dp931
g3
I2504
sa(dp932
g2
I1
sg3
I2503
sa(dp933
g6
I1660
sg7
I844
sa(dp934
g3
I2504
sa(dp935
g2
I2503
sg3
I1
sa(dp936
g2
I2503
sg3
I1
sa(dp937
g3
I2504
sa(dp938
g2
I2502
sg3
I2
sa(dp939
g6
I1
sg7
I2503
sa(dp940
g2
I1
sg3
I2503
sa(dp941
g3
I2503
sg7
I1
sa(dp942
g2
I2503
sg3
I1
sa(dp943
g2
I1
sg3
I2503
sa(dp944
g6
I2503
sg7
I1
sa(dp945
g7
I2504
sa(dp946
g3
I2503
sg7
I1
sa(dp947
g7
I2504
sa(dp948
g2
I2504
sa(dp949
g6
I2503
sg2
I1
sa(dp950
g6
I2502
sg7
I2
sa(dp951
g2
I1
sg3
I2503
sa(dp952
g2
I2501
sg7
I3
sa(dp953
g2
I892
sg3
I1612
sa(dp954
g2
I2503
sg3
I1
sa(dp955
g6
I2504
sa(dp956
g7
I2504
sa(dp957
g6
I2
sg7
I2502
sa(dp958
g2
I25
sg3
I2479
sa(dp959
g3
I2504
sa(dp960
g6
I3
sg7
I2501
sa(dp961
g3
I2504
sa(dp962
g3
I2504
sa(dp963
g2
I2478
sg3
I26
sa(dp964
g2
I844
sg3
I1660
sa(dp965
g2
I2502
sg3
I2
sa(dp966
g2
I2502
sg3
I2
sa(dp967
g3
I2504
sa(dp968
g6
I2504
sa(dp969
g3
I2504
sa(dp970
g2
I6
sg3
I2498
sa(dp971
g3
I2503
sg7
I1
sa(dp972
g2
I1
sg3
I2503
sa(dp973
g2
I2
sg3
I2502
sa(dp974
g6
I1376
sg7
I1128
sa(dp975
g2
I1
sg3
I2503
sa(dp976
g6
I2496
sg7
I8
sa(dp977
g6
I8
sg7
I2496
sa(dp978
g3
I2504
sa(dp979
g7
I2504
sa(dp980
g2
I28
sg3
I2476
sa(dp981
g7
I2504
sa(dp982
g2
I1
sg3
I2503
sa(dp983
g7
I2504
sa(dp984
g6
I1663
sg7
I841
sa(dp985
g2
I2504
sa(dp986
g6
I1
sg3
I2503
sa(dp987
g6
I2502
sg7
I2
sa(dp988
g2
I8
sg3
I2496
sa(dp989
g3
I2504
sa(dp990
g2
I1
sg3
I2503
sa(dp991
g2
I5
sg3
I2499
sa(dp992
g6
I850
sg7
I1654
sa(dp993
g2
I2418
sg3
I86
sa(dp994
g6
I1
sg7
I2503
sa(dp995
g3
I2504
sa(dp996
g2
I2502
sg3
I2
sa(dp997
g6
I2504
sa(dp998
g2
I2
sg3
I2502
sa(dp999
g2
I11
sg3
I2493
sa(dp1000
S'TAGA'
p1001
I2499
sg3
I5
sa(dp1002
g3
I2504
sa(dp1003
g6
I1
sg7
I2503
sa(dp1004
g6
I1
sg7
I2503
sa(dp1005
g3
I2504
sa(dp1006
g6
I2504
sa(dp1007
g3
I2504
sa(dp1008
g6
I1
sg7
I2503
sa(dp1009
g6
I2502
sg7
I2
sa(dp1010
g2
I2503
sg3
I1
sa(dp1011
g6
I1
sg7
I2503
sa(dp1012
g6
I1
sg2
I2503
sa(dp1013
g6
I2504
sa(dp1014
g2
I2
sg3
I2502
sa(dp1015
g2
I2503
sg3
I1
sa(dp1016
g6
I2
sg7
I2502
sa(dp1017
g7
I2504
sa(dp1018
g6
I2503
sg7
I1
sa(dp1019
g6
I2504
sa(dp1020
g2
I2504
sa(dp1021
g6
I2497
sg2
I7
sa(dp1022
g2
I53
sg3
I2451
sa(dp1023
g2
I2504
sa(dp1024
g2
I2503
sg3
I1
sa(dp1025
g2
I2
sg3
I2502
sa(dp1026
g2
I2503
sg7
I1
sa(dp1027
g2
I1
sg3
I2503
sa(dp1028
g7
I2504
sa(dp1029
g2
I2503
sg3
I1
sa(dp1030
g2
I2504
sa(dp1031
g2
I2503
sg3
I1
sa(dp1032
g6
I2504
sa(dp1033
g2
I2501
sg3
I3
sa(dp1034
g6
I2504
sa(dp1035
g6
I1
sg2
I2503
sa(dp1036
g6
I2504
sa(dp1037
g6
I1
sg7
I2503
sa(dp1038
g6
I1
sg7
I2503
sa(dp1039
g2
I2495
sg3
I9
sa(dp1040
g6
I1
sg7
I2503
sa(dp1041
g3
I8
sg7
I2496
sa(dp1042
g3
I2504
sa(dp1043
g7
I2504
sa(dp1044
g7
I2504
sa(dp1045
g6
I2504
sa(dp1046
g6
I1
sg2
I2503
sa(dp1047
g7
I2504
sa(dp1048
g2
I2471
sg3
I33
sa(dp1049
g7
I2504
sa(dp1050
g7
I2504
sa(dp1051
g2
I2504
sa(dp1052
g6
I3
sg7
I2501
sa(dp1053
g6
I2503
sg7
I1
sa(dp1054
g7
I2504
sa(dp1055
g2
I1
sg7
I2503
sa(dp1056
g2
I2503
sg3
I1
sa(dp1057
g2
I2504
sa(dp1058
g7
I2504
sa(dp1059
g6
I1
sg7
I2503
sa(dp1060
g6
I1
sg2
I2503
sa(dp1061
g7
I2504
sa(dp1062
g6
I2487
sg7
I17
sa(dp1063
g6
I2504
sa(dp1064
g3
I2504
sa(lp1065
(dp1066
(g2
g3
tp1067
I2
s(g3
g2
tp1068
I3
s(g2
g2
tp1069
I2499
sa(dp1070
(g2
g3
tp1071
I16
s(g3
g2
tp1072
I13
s(g2
g2
tp1073
I2475
sa(dp1074
(g6
g7
tp1075
I1
s(g7
g6
tp1076
I9
s(g7
g7
tp1077
I2494
sa(dp1078
(g3
g7
tp1079
I1
s(g7
g3
tp1080
I1
s(g7
g7
tp1081
I2502
sa(dp1082
(g6
g6
tp1083
I2503
s(g7
g6
tp1084
I1
sa(dp1085
(g6
S'AAAG'
p1086
tp1087
I18
s(S'AAAG'
p1088
g6
tp1089
I12
s(g11
g542
tp1090
I2474
sa(dp1091
(g6
g7
tp1092
I334
s(g6
g6
tp1093
I1811
s(g7
g6
tp1094
I308
s(g7
g7
tp1095
I51
sa(dp1096
(g6
g7
tp1097
I385
s(g6
g6
tp1098
I129
s(g7
g6
tp1099
I405
s(g7
g7
tp1100
I1585
sa(dp1101
(g2
g6
tp1102
I2
s(g6
g6
tp1103
I2500
s(g6
g2
tp1104
I2
sa(dp1105
(g2
g3
tp1106
I14
s(g3
g2
tp1107
I8
s(g2
g2
tp1108
I2482
sa(dp1109
(g6
g7
tp1110
I2
s(g7
g7
tp1111
I2502
sa(dp1112
(g6
g7
tp1113
I2
s(g6
g6
tp1114
I2500
s(g7
g6
tp1115
I2
sa(dp1116
(g3
g2
tp1117
I1
s(g2
g2
tp1118
I2503
sa(dp1119
(g7
g2
tp1120
I1
s(g2
g2
tp1121
I2503
sa(dp1122
(g6
g7
tp1123
I5
s(g6
g6
tp1124
I2495
s(g7
g6
tp1125
I3
s(g7
g7
tp1126
I1
sa(dp1127
(g2
g7
tp1128
I1
s(g7
g7
tp1129
I2503
sa(dp1130
(g3
g7
tp1131
I5
s(g3
g3
tp1132
I2490
s(g7
g3
tp1133
I8
s(g7
g7
tp1134
I1
sa(dp1135
(g2
g3
tp1136
I2
s(g3
g2
tp1137
I1
s(g3
g3
tp1138
I2501
sa(dp1139
(g6
g6
tp1140
I2503
s(g6
g2
tp1141
I1
sa(dp1142
(g2
g3
tp1143
I2
s(g3
g2
tp1144
I1
s(g2
g2
tp1145
I2501
sa(dp1146
(g3
g2
tp1147
I1
s(g2
g2
tp1148
I2503
sa(dp1149
(g2
g3
tp1150
I1
s(g3
g3
tp1151
I2503
sa(dp1152
(g6
g7
tp1153
I1
s(g6
g6
tp1154
I2503
sa(dp1155
(g2
g3
tp1156
I1
s(g3
g3
tp1157
I2503
sa(dp1158
(g6
g7
tp1159
I2
s(g6
g6
tp1160
I2502
sa(dp1161
(g6
g6
tp1162
I2503
s(g7
g6
tp1163
I1
sa(dp1164
(g2
g3
tp1165
I1
s(g3
g2
tp1166
I2
s(g3
g3
tp1167
I2501
sa(dp1168
(g7
g6
tp1169
I1
s(g7
g7
tp1170
I2503
sa(dp1171
(g6
g7
tp1172
I1
s(g7
g7
tp1173
I2503
sa(dp1174
(g7
g6
tp1175
I1
s(g7
g7
tp1176
I2503
sa(dp1177
(g2
g6
tp1178
I166
s(g6
g6
tp1179
I2152
s(g6
g2
tp1180
I169
s(g2
g2
tp1181
I17
sa(dp1182
(g6
g3
tp1183
I4
s(g3
g3
tp1184
I2496
s(g3
g6
tp1185
I4
sa(dp1186
(g2
g6
tp1187
I2
s(g6
g6
tp1188
I2501
s(g6
g2
tp1189
I1
sa(dp1190
(g2
g6
tp1191
I1
s(g2
g2
tp1192
I2503
sa(dp1193
(g7
g6
tp1194
I1
s(g7
g7
tp1195
I2503
sa(dp1196
(g3
g7
tp1197
I1
s(g3
g3
tp1198
I2503
sa(dp1199
(g3
g2
tp1200
I1
s(g2
g2
tp1201
I2503
sa(dp1202
(g6
g7
tp1203
I7
s(g6
g6
tp1204
I2492
s(g7
g6
tp1205
I5
sa(dp1206
(g2
g3
tp1207
I1
s(g3
g3
tp1208
I2503
sa(dp1209
(g6
g6
tp1210
I2503
s(g3
g6
tp1211
I1
sa(dp1212
(g2
g6
tp1213
I459
s(g6
g6
tp1214
I1449
s(g6
g2
tp1215
I402
s(g2
g2
tp1216
I194
sa(dp1217
(g2
g3
tp1218
I3
s(g3
g2
tp1219
I2
s(g2
g2
tp1220
I2499
sa(dp1221
(g2
g6
tp1222
I2
s(g6
g2
tp1223
I3
s(g2
g2
tp1224
I2499
sa(dp1225
(g2
g7
tp1226
I1
s(g7
g7
tp1227
I2503
sa(dp1228
(g6
g6
tp1229
I2503
s(g3
g6
tp1230
I1
sa(dp1231
(g2
g3
tp1232
I1
s(g3
g3
tp1233
I2503
sa(dp1234
(g6
g7
tp1235
I21
s(g6
g6
tp1236
I2473
s(g7
g6
tp1237
I8
s(g7
g7
tp1238
I2
sa(dp1239
(g6
g2
tp1240
I1
s(g2
g2
tp1241
I2503
sa(dp1242
(g6
g7
tp1243
I5
s(g6
g6
tp1244
I2497
s(g7
g6
tp1245
I2
sa(dp1246
(g6
g7
tp1247
I169
s(g6
g6
tp1248
I2152
s(g7
g6
tp1249
I166
s(g7
g7
tp1250
I17
sa(dp1251
(g7
g6
tp1252
I1
s(g7
g7
tp1253
I2503
sa(dp1254
(g6
g7
tp1255
I1
s(g6
g6
tp1256
I2503
sa(dp1257
(g2
g3
tp1258
I1
s(g3
g2
tp1259
I1
s(g3
g3
tp1260
I2502
sa(dp1261
(g6
g7
tp1262
I1
s(g6
g6
tp1263
I2503
sa(dp1264
(g6
g7
tp1265
I1
s(g7
g7
tp1266
I2503
sa(dp1267
(g3
g7
tp1268
I1
s(g7
g7
tp1269
I2503
sa(dp1270
(g2
g7
tp1271
I1
s(g2
g2
tp1272
I2503
sa(dp1273
(g6
g7
tp1274
I1
s(g7
g7
tp1275
I2503
sa(dp1276
(g2
g6
tp1277
I1
s(g6
g6
tp1278
I2502
s(g6
g2
tp1279
I1
sa(dp1280
(g6
g6
tp1281
I2503
s(g7
g6
tp1282
I1
sa(dp1283
(g2
g3
tp1284
I26
s(g3
g2
tp1285
I15
s(g3
g3
tp1286
I2463
sa(dp1287
(g6
g7
tp1288
I2
s(g6
g6
tp1289
I2501
s(g7
g6
tp1290
I1
sa(dp1291
(g2
g3
tp1292
I2
s(g3
g2
tp1293
I3
s(g3
g3
tp1294
I2499
sa(dp1295
(g2
g3
tp1296
I5
s(g3
g2
tp1297
I7
s(g3
g3
tp1298
I2492
sa(dp1299
(g2
g3
tp1300
I1
s(g3
g2
tp1301
I1
s(g2
g2
tp1302
I2502
sa(dp1303
(g3
g3
tp1304
I2503
s(g3
g6
tp1305
I1
sa(dp1306
(g2
g3
tp1307
I1
s(g3
g3
tp1308
I2503
sa(dp1309
(g6
g6
tp1310
I2503
s(g7
g6
tp1311
I1
sa(dp1312
(g7
g6
tp1313
I1
s(g7
g7
tp1314
I2503
sa(dp1315
(g7
g6
tp1316
I1
s(g7
g7
tp1317
I2503
sa(dp1318
(g6
g3
tp1319
I1
s(g3
g3
tp1320
I2503
sa(dp1321
(g3
g2
tp1322
I2
s(g2
g2
tp1323
I2502
sa(dp1324
(g6
g6
tp1325
I2492
s(g6
g3
tp1326
I10
s(g3
g6
tp1327
I2
sa(dp1328
(g6
g7
tp1329
I1
s(g6
g6
tp1330
I2502
s(g7
g6
tp1331
I1
sa(dp1332
(g6
g7
tp1333
I1
s(g6
g6
tp1334
I2503
sa(dp1335
(g2
g3
tp1336
I1
s(g3
g2
tp1337
I1
s(g3
g3
tp1338
I2502
sa(dp1339
(g2
g3
tp1340
I166
s(g3
g2
tp1341
I168
s(g3
g3
tp1342
I2153
s(g2
g2
tp1343
I17
sa(dp1344
(g6
g7
tp1345
I1
s(g6
g6
tp1346
I2503
sa(dp1347
(g6
g7
tp1348
I7
s(g6
g6
tp1349
I2487
s(g7
g6
tp1350
I9
s(g7
g7
tp1351
I1
sa(dp1352
(g6
g7
tp1353
I1
s(g6
g6
tp1354
I2503
sa(dp1355
(g2
g6
tp1356
I3
s(g6
g6
tp1357
I2499
s(g6
g2
tp1358
I2
sa(dp1359
(g6
g7
tp1360
I3
s(g6
g6
tp1361
I2501
sa(dp1362
(g3
g3
tp1363
I2503
s(g3
g6
tp1364
I1
sa(dp1365
(g6
g6
tp1366
I2503
s(g7
g6
tp1367
I1
sa(dp1368
(g6
g7
tp1369
I1
s(g6
g6
tp1370
I2503
sa(dp1371
(g2
g3
tp1372
I6
s(g3
g2
tp1373
I4
s(g3
g3
tp1374
I2494
sa(dp1375
(g7
g6
tp1376
I2
s(g7
g7
tp1377
I2502
sa(dp1378
(g3
g7
tp1379
I1
s(g3
g3
tp1380
I2503
sa(dp1381
(g6
g3
tp1382
I1
s(g3
g3
tp1383
I2503
sa(dp1384
(g7
g6
tp1385
I1
s(g7
g7
tp1386
I2503
sa(dp1387
(g6
g7
tp1388
I2
s(g7
g7
tp1389
I2502
sa(dp1390
(g6
g7
tp1391
I1
s(g7
g7
tp1392
I2503
sa(dp1393
(g6
g3
tp1394
I6
s(g3
g3
tp1395
I2492
s(g3
g6
tp1396
I6
sa(dp1397
(g2
g3
tp1398
I6
s(g3
g2
tp1399
I6
s(g2
g2
tp1400
I2492
sa(dp1401
(g6
g6
tp1402
I2503
s(g7
g6
tp1403
I1
sa(dp1404
(g6
g6
tp1405
I2494
s(g6
g3
tp1406
I4
s(g3
g6
tp1407
I6
sa(dp1408
(g6
g7
tp1409
I185
s(g6
g6
tp1410
I2120
s(g7
g6
tp1411
I182
s(g7
g7
tp1412
I17
sa(dp1413
(g7
g2
tp1414
I1
s(g2
g2
tp1415
I2503
sa(dp1416
(g6
g7
tp1417
I1
s(g6
g6
tp1418
I2503
sa(dp1419
(g7
g6
tp1420
I1
s(g7
g7
tp1421
I2503
sa(dp1422
(g3
g2
tp1423
I1
s(g3
g3
tp1424
I2503
sa(dp1425
(g2
g3
tp1426
I1
s(g2
g2
tp1427
I2503
sa(dp1428
(g6
g6
tp1429
I2503
s(g6
g3
tp1430
I1
sa(dp1431
(g7
g6
tp1432
I1
s(g7
g7
tp1433
I2503
sa(dp1434
(g2
g3
tp1435
I15
s(g3
g2
tp1436
I17
s(g3
g3
tp1437
I2471
s(g2
g2
tp1438
I1
sa(dp1439
(g6
g6
tp1440
I2503
s(g6
g3
tp1441
I1
sa(dp1442
(g6
g6
tp1443
I2503
s(g6
g2
tp1444
I1
sa(dp1445
(g2
g3
tp1446
I1
s(g3
g3
tp1447
I2503
sa(dp1448
(g7
g6
tp1449
I1
s(g7
g7
tp1450
I2503
sa(dp1451
(g6
g7
tp1452
I491
s(g6
g6
tp1453
I1354
s(g7
g6
tp1454
I473
s(g7
g7
tp1455
I186
sa(dp1456
(g2
g3
tp1457
I3
s(g3
g2
tp1458
I2
s(g3
g3
tp1459
I2498
s(g2
g2
tp1460
I1
sa(dp1461
(g6
g6
tp1462
I2503
s(g7
g6
tp1463
I1
sa(dp1464
(g6
g7
tp1465
I2
s(g6
g6
tp1466
I2499
s(g7
g6
tp1467
I3
sa(dp1468
(g6
g7
tp1469
I1
s(g7
g7
tp1470
I2503
sa(dp1471
(g2
g3
tp1472
I1
s(g3
g2
tp1473
I3
s(g2
g2
tp1474
I2500
sa(dp1475
(g6
g7
tp1476
I2
s(g7
g6
tp1477
I6
s(g7
g7
tp1478
I2496
sa(dp1479
(g2
g3
tp1480
I1
s(g2
g2
tp1481
I2503
sa(dp1482
(g6
g6
tp1483
I2503
s(g6
g3
tp1484
I1
sa(dp1485
(g2
g3
tp1486
I336
s(g3
g2
tp1487
I358
s(g3
g3
tp1488
I1736
s(g2
g2
tp1489
I74
sa(dp1490
(g6
g7
tp1491
I7
s(g7
g6
tp1492
I10
s(g7
g7
tp1493
I2487
sa(dp1494
(g6
g6
tp1495
I2503
s(g6
g3
tp1496
I1
sa(dp1497
(g3
g3
tp1498
I2503
s(g3
g6
tp1499
I1
sa(dp1500
(g7
g6
tp1501
I2
s(g7
g7
tp1502
I2502
sa(dp1503
(g2
g6
tp1504
I3
s(g6
g6
tp1505
I2501
sa(dp1506
(g2
g6
tp1507
I8
s(g6
g6
tp1508
I2482
s(g6
g2
tp1509
I14
sa(dp1510
(g2
g6
tp1511
I1
s(g2
g2
tp1512
I2503
sa(dp1513
(g6
g7
tp1514
I3
s(g6
g6
tp1515
I2494
s(g7
g6
tp1516
I7
sa(dp1517
(g2
g3
tp1518
I4
s(g3
g2
tp1519
I8
s(g2
g2
tp1520
I2492
sa(dp1521
(g6
g7
tp1522
I1
s(g6
g6
tp1523
I2503
sa(dp1524
(g3
g7
tp1525
I11
s(g7
g3
tp1526
I9
s(g7
g7
tp1527
I2484
sa(dp1528
(g6
g2
tp1529
I1
s(g2
g2
tp1530
I2503
sa(dp1531
(g6
g6
tp1532
I2503
s(g7
g6
tp1533
I1
sa(dp1534
(g7
g2
tp1535
I1
s(g2
g2
tp1536
I2503
sa(dp1537
(g6
g7
tp1538
I1
s(g6
g6
tp1539
I2503
sa(dp1540
(g6
g7
tp1541
I1
s(g6
g6
tp1542
I2503
sa(dp1543
(g6
g7
tp1544
I1
s(g6
g6
tp1545
I2503
sa(dp1546
(g6
g7
tp1547
I60
s(g6
g6
tp1548
I6
s(g7
g6
tp1549
I58
s(g7
g7
tp1550
I2380
sa(dp1551
(g6
g7
tp1552
I1
s(g6
g6
tp1553
I2503
sa(dp1554
(g2
g3
tp1555
I2
s(g2
g2
tp1556
I2502
sa(dp1557
(g6
g7
tp1558
I2
s(g7
g6
tp1559
I1
s(g7
g7
tp1560
I2501
sa(dp1561
(g2
g3
tp1562
I1
s(g3
g3
tp1563
I2503
sa(dp1564
(g7
g2
tp1565
I1
s(g2
g2
tp1566
I2503
sa(dp1567
(g2
g6
tp1568
I2
s(g6
g6
tp1569
I1
s(g6
g2
tp1570
I4
s(g2
g2
tp1571
I2497
sa(dp1572
(g2
g6
tp1573
I2
s(g6
g6
tp1574
I2502
sa(dp1575
(g6
g7
tp1576
I1
s(g6
g6
tp1577
I2502
s(g7
g6
tp1578
I1
sa(dp1579
(g2
g6
tp1580
I3
s(g6
g6
tp1581
I2499
s(g6
g2
tp1582
I2
sa(dp1583
(g2
g3
tp1584
I1
s(g3
g3
tp1585
I2503
sa(dp1586
(g6
g6
tp1587
I2503
s(g7
g6
tp1588
I1
sa(dp1589
(g2
g3
tp1590
I2
s(g3
g3
tp1591
I2502
sa(dp1592
(g6
g7
tp1593
I1
s(g6
g6
tp1594
I2503
sa(dp1595
(g3
g2
tp1596
I1
s(g2
g2
tp1597
I2503
sa(dp1598
(g6
g7
tp1599
I1
s(g6
g6
tp1600
I2503
sa(dp1601
(g6
g7
tp1602
I1
s(g6
g6
tp1603
I1
s(g7
g7
tp1604
I2502
sa(dp1605
(g6
g7
tp1606
I1
s(g6
g6
tp1607
I2503
sa(dp1608
(g3
g2
tp1609
I1
s(g2
g2
tp1610
I2503
sa(dp1611
(g2
g3
tp1612
I4
s(g3
g2
tp1613
I5
s(g2
g2
tp1614
I2495
sa(dp1615
(g2
g3
tp1616
I4
s(g3
g2
tp1617
I4
s(g2
g2
tp1618
I2496
sa(dp1619
(g7
g6
tp1620
I1
s(g7
g7
tp1621
I2503
sa(dp1622
(g6
g7
tp1623
I1
s(g7
g7
tp1624
I2503
sa(dp1625
(g6
g6
tp1626
I2504
sa(dp1627
(g6
g7
tp1628
I17
s(g6
g6
tp1629
I2471
s(g7
g6
tp1630
I15
s(g7
g7
tp1631
I1
sa(dp1632
(g3
g2
tp1633
I1
s(g2
g2
tp1634
I2503
sa(dp1635
(g6
g7
tp1636
I1
s(g7
g7
tp1637
I2503
sa(dp1638
(g7
g2
tp1639
I1
s(g2
g2
tp1640
I2503
sa(dp1641
(g2
g6
tp1642
I2
s(g6
g6
tp1643
I2502
sa(dp1644
(g2
g3
tp1645
I1
s(g2
g2
tp1646
I2503
sa(dp1647
(g6
g7
tp1648
I1
s(g7
g7
tp1649
I2503
sa(dp1650
(g7
g6
tp1651
I1
s(g7
g7
tp1652
I2503
sa(dp1653
(g3
g7
tp1654
I7
s(g3
g3
tp1655
I2493
s(g7
g3
tp1656
I4
sa(dp1657
(g7
g6
tp1658
I1
s(g7
g7
tp1659
I2503
sa(dp1660
(g6
g7
tp1661
I16
s(g7
g6
tp1662
I15
s(g7
g7
tp1663
I2473
sa(dp1664
(g3
g2
tp1665
I1
s(g3
g3
tp1666
I2503
sa(dp1667
(g7
g2
tp1668
I1
s(g2
g2
tp1669
I2503
sa(dp1670
(g2
g3
tp1671
I17
s(g3
g2
tp1672
I26
s(g2
g2
tp1673
I2461
sa(dp1674
(g7
g6
tp1675
I2
s(g7
g7
tp1676
I2502
sa(dp1677
(g2
g6
tp1678
I1
s(g6
g6
tp1679
I2503
sa(dp1680
(g6
g7
tp1681
I6
s(g6
g6
tp1682
I2497
s(g7
g6
tp1683
I1
sa(dp1684
(g2
g3
tp1685
I1
s(g3
g3
tp1686
I2503
sa(dp1687
(g7
g6
tp1688
I1
s(g7
g7
tp1689
I2503
sa(dp1690
(g6
g6
tp1691
I2503
s(g6
g2
tp1692
I1
sa(dp1693
(g6
g7
tp1694
I3
s(g7
g6
tp1695
I4
s(g7
g7
tp1696
I2497
sa(dp1697
(g6
g7
tp1698
I1
s(g6
g6
tp1699
I2503
sa(dp1700
(g6
g7
tp1701
I1
s(g6
g6
tp1702
I2503
sa(dp1703
(g3
g2
tp1704
I1
s(g3
g3
tp1705
I2503
sa(dp1706
(g2
g3
tp1707
I10
s(g3
g2
tp1708
I2
s(g2
g2
tp1709
I2492
sa(dp1710
(g2
g3
tp1711
I4
s(g3
g2
tp1712
I3
s(g2
g2
tp1713
I2497
sa(dp1714
(g3
g7
tp1715
I1
s(g7
g3
tp1716
I2
s(g7
g7
tp1717
I2501
sa(dp1718
(g3
g2
tp1719
I1
s(g3
g3
tp1720
I2503
sa(dp1721
(g2
g6
tp1722
I9
s(g6
g2
tp1723
I5
s(g2
g2
tp1724
I2490
sa(dp1725
(g7
g2
tp1726
I1
s(g7
g7
tp1727
I2503
sa(dp1728
(g6
g6
tp1729
I2503
s(g7
g6
tp1730
I1
sa(dp1731
(g2
g3
tp1732
I3
s(g3
g2
tp1733
I3
s(g2
g2
tp1734
I2498
sa(dp1735
(g6
g7
tp1736
I7
s(g6
g6
tp1737
I1
s(g7
g6
tp1738
I10
s(g7
g7
tp1739
I2486
sa(dp1740
(g6
g7
tp1741
I2
s(g7
g7
tp1742
I2502
sa(dp1743
(g6
g7
tp1744
I15
s(g6
g6
tp1745
I2470
s(g7
g6
tp1746
I19
sa(dp1747
(g3
g7
tp1748
I4
s(g3
g3
tp1749
I1
s(g7
g3
tp1750
I2
s(g7
g7
tp1751
I2497
sa(dp1752
(g2
g7
tp1753
I1
s(g2
g2
tp1754
I2503
sa(dp1755
(g7
g2
tp1756
I60
s(g2
g7
tp1757
I58
s(g7
g7
tp1758
I6
s(g2
g3
tp1759
I2
s(g2
g2
tp1760
I2378
sa(dp1761
(g2
g3
tp1762
I1
s(g2
g2
tp1763
I2503
sa(dp1764
(g6
g7
tp1765
I1
s(g6
g6
tp1766
I2503
sa(dp1767
(g3
g2
tp1768
I1
s(g3
g3
tp1769
I2503
sa(dp1770
(g6
g7
tp1771
I1
s(g6
g6
tp1772
I2503
sa(dp1773
(g7
g6
tp1774
I1
s(g7
g7
tp1775
I2503
sa(dp1776
(g3
g7
tp1777
I1
s(g7
g7
tp1778
I2503
sa(dp1779
(g6
g6
tp1780
I2502
s(g6
g2
tp1781
I2
sa(dp1782
(g6
g6
tp1783
I2503
s(g7
g6
tp1784
I1
sa(dp1785
(g6
g6
tp1786
I2503
s(g6
g2
tp1787
I1
sa(dp1788
(g6
g6
tp1789
I2503
s(g3
g6
tp1790
I1
sa(dp1791
(g2
g3
tp1792
I1
s(g3
g3
tp1793
I2503
sa(dp1794
(g2
g6
tp1795
I1
s(g6
g6
tp1796
I2503
sa(dp1797
(g2
g2
tp1798
I1
s(g7
g2
tp1799
I17
s(g2
g7
tp1800
I15
s(g7
g7
tp1801
I2471
sa(dp1802
(g7
g2
tp1803
I3
s(g2
g7
tp1804
I1
s(g2
g2
tp1805
I2500
sa(dp1806
(g3
g7
tp1807
I1
s(g7
g7
tp1808
I2503
sa(dp1809
(g7
g6
tp1810
I1
s(g7
g7
tp1811
I2503
sa(dp1812
(g2
g6
tp1813
I2
s(g6
g2
tp1814
I5
s(g2
g2
tp1815
I2497
sa(dp1816
(g6
g7
tp1817
I446
s(g6
g6
tp1818
I1486
s(g7
g6
tp1819
I425
s(g7
g7
tp1820
I147
sa(dp1821
(g2
g6
tp1822
I1
s(g6
g6
tp1823
I2503
sa(dp1824
(g6
g7
tp1825
I26
s(g6
g6
tp1826
I2454
s(g7
g6
tp1827
I22
s(g7
g7
tp1828
I2
sa(dp1829
(g6
g7
tp1830
I1
s(g6
g6
tp1831
I2503
sa(dp1832
(g2
g7
tp1833
I1
s(g2
g2
tp1834
I2503
sa(dp1835
(g2
g3
tp1836
I51
s(g3
g2
tp1837
I60
s(g3
g3
tp1838
I5
s(g2
g2
tp1839
I2388
sa(dp1840
(g3
g7
tp1841
I1
s(g3
g3
tp1842
I2502
s(g7
g3
tp1843
I1
sa(dp1844
(g2
g3
tp1845
I43
s(g3
g2
tp1846
I25
s(g3
g3
tp1847
I2430
s(g2
g2
tp1848
I6
sa(dp1849
(g2
g3
tp1850
I1
s(g3
g2
tp1851
I1
s(g2
g2
tp1852
I2502
sa(dp1853
(g6
g7
tp1854
I1
s(g7
g7
tp1855
I2503
sa(dp1856
(g2
g3
tp1857
I1
s(g2
g2
tp1858
I2503
sa(dp1859
(g3
g2
tp1860
I1
s(g2
g2
tp1861
I2503
sa(dp1862
(g2
g3
tp1863
I2
s(g3
g2
tp1864
I1
s(g2
g2
tp1865
I2501
sa(dp1866
(g6
g7
tp1867
I10
s(g7
g6
tp1868
I11
s(g7
g7
tp1869
I2483
sa(dp1870
(g3
g2
tp1871
I1
s(g2
g2
tp1872
I2503
sa(dp1873
(g6
g7
tp1874
I1
s(g6
g6
tp1875
I2503
sa(dp1876
(g6
g6
tp1877
I2503
s(g7
g6
tp1878
I1
sa(dp1879
(g6
g7
tp1880
I1
s(g6
g6
tp1881
I2503
sa(dp1882
(g3
g3
tp1883
I2503
s(g3
g6
tp1884
I1
sa(dp1885
(g6
g6
tp1886
I2503
s(g7
g6
tp1887
I1
sa(dp1888
(g6
g7
tp1889
I1
s(g7
g7
tp1890
I2503
sa(dp1891
(g3
g2
tp1892
I1
s(g3
g3
tp1893
I2503
sa(dp1894
(g2
g3
tp1895
I1
s(g3
g3
tp1896
I2503
sa(dp1897
(g7
g7
tp1898
I2504
sa(dp1899
(g7
g2
tp1900
I1
s(g7
g7
tp1901
I2503
sa(dp1902
(g6
g7
tp1903
I3
s(g6
g6
tp1904
I2500
s(g7
g6
tp1905
I1
sa(dp1906
(g3
g7
tp1907
I1
s(g7
g3
tp1908
I2
s(g7
g7
tp1909
I2501
sa(dp1910
(g6
g7
tp1911
I2
s(g7
g6
tp1912
I1
s(g7
g7
tp1913
I2501
sa(dp1914
(g3
g7
tp1915
I6
s(g7
g3
tp1916
I7
s(g7
g7
tp1917
I2491
sa(dp1918
(g3
g7
tp1919
I1
s(g7
g7
tp1920
I2503
sa(dp1921
(g3
g2
tp1922
I1
s(g3
g3
tp1923
I2503
sa(dp1924
(g7
g7
tp1925
I2504
sa(dp1926
(g2
g6
tp1927
I34
s(g6
g6
tp1928
I2433
s(g6
g2
tp1929
I36
s(g2
g2
tp1930
I1
sa(dp1931
(g6
g7
tp1932
I1
s(g7
g7
tp1933
I2503
sa(dp1934
(g2
g3
tp1935
I5
s(g3
g2
tp1936
I2
s(g3
g3
tp1937
I2497
sa(dp1938
(g6
g6
tp1939
I2503
s(g7
g6
tp1940
I1
sa(dp1941
(g7
g6
tp1942
I1
s(g7
g7
tp1943
I2503
sa(dp1944
(g6
g6
tp1945
I2503
s(g6
g2
tp1946
I1
sa(dp1947
(g6
g7
tp1948
I1
s(g6
g6
tp1949
I2503
sa(dp1950
(g2
g3
tp1951
I1
s(g2
g2
tp1952
I2503
sa(dp1953
(g6
g7
tp1954
I1
s(g7
g7
tp1955
I2503
sa(dp1956
(g6
g6
tp1957
I2460
s(g6
g3
tp1958
I18
s(g3
g3
tp1959
I1
s(g3
g6
tp1960
I25
sa(dp1961
(g2
g3
tp1962
I1
s(g3
g3
tp1963
I2503
sa(dp1964
(g3
g7
tp1965
I3
s(g7
g3
tp1966
I3
s(g7
g7
tp1967
I2498
sa(dp1968
(g6
g7
tp1969
I24
s(g6
g6
tp1970
I1
s(g7
g6
tp1971
I24
s(g7
g7
tp1972
I2455
sa(dp1973
(g6
g7
tp1974
I1
s(g7
g6
tp1975
I2
s(g7
g7
tp1976
I2501
sa(dp1977
(g7
g2
tp1978
I1
s(g2
g2
tp1979
I2503
sa(dp1980
(g2
g3
tp1981
I1
s(g2
g2
tp1982
I2503
sa(dp1983
(g6
g7
tp1984
I1
s(g6
g6
tp1985
I2503
sa(dp1986
(g7
g6
tp1987
I3
s(g7
g7
tp1988
I2501
sa(dp1989
(g2
g7
tp1990
I1
s(g7
g7
tp1991
I2503
sa(dp1992
(g3
g2
tp1993
I2
s(g3
g3
tp1994
I2502
sa(dp1995
(g3
g2
tp1996
I1
s(g3
g3
tp1997
I2503
sa(dp1998
(g3
g2
tp1999
I1
s(g2
g2
tp2000
I2503
sa(dp2001
(g6
g7
tp2002
I1
s(g6
g6
tp2003
I2503
sa(dp2004
(g7
g2
tp2005
I1
s(g7
g7
tp2006
I2503
sa(dp2007
(g3
g2
tp2008
I1
s(g2
g2
tp2009
I2503
sa(dp2010
(g6
g7
tp2011
I1
s(g6
g6
tp2012
I2503
sa(dp2013
(g2
g7
tp2014
I1
s(g7
g7
tp2015
I2503
sa(dp2016
(g3
g2
tp2017
I1
s(g2
g2
tp2018
I2503
sa(dp2019
(g7
g2
tp2020
I10
s(g2
g7
tp2021
I2
s(g7
g7
tp2022
I2492
sa(dp2023
(g6
g7
tp2024
I2
s(g6
g6
tp2025
I2502
sa(dp2026
(g6
g6
tp2027
I2503
s(g3
g6
tp2028
I1
sa(dp2029
(g6
g7
tp2030
I15
s(g6
g6
tp2031
I1
s(g7
g6
tp2032
I17
s(g7
g7
tp2033
I2471
sa(dp2034
(g6
g7
tp2035
I2
s(g6
g6
tp2036
I2497
s(g7
g6
tp2037
I5
sa(dp2038
(g2
g7
tp2039
I1
s(g2
g2
tp2040
I2503
sa(dp2041
(g3
g2
tp2042
I1
s(g2
g2
tp2043
I2503
sa(dp2044
(g7
g6
tp2045
I1
s(g7
g7
tp2046
I2503
sa(dp2047
(g2
g6
tp2048
I1
s(g2
g2
tp2049
I2503
sa(dp2050
(g2
g6
tp2051
I1
s(g2
g2
tp2052
I2503
sa(dp2053
(g6
g6
tp2054
I2503
s(g6
g2
tp2055
I1
sa(dp2056
(g6
g6
tp2057
I2482
s(g6
g3
tp2058
I11
s(g3
g6
tp2059
I11
sa(dp2060
(g7
g2
tp2061
I1
s(g2
g2
tp2062
I2503
sa(dp2063
(g2
g6
tp2064
I1
s(g2
g2
tp2065
I2503
sa(dp2066
(g6
g7
tp2067
I1
s(g7
g7
tp2068
I2503
sa(dp2069
(g6
g7
tp2070
I2
s(g7
g6
tp2071
I2
s(g7
g7
tp2072
I2500
sa(dp2073
(g2
g3
tp2074
I2
s(g3
g2
tp2075
I3
s(g2
g2
tp2076
I2499
sa(dp2077
(g2
g3
tp2078
I1
s(g2
g2
tp2079
I2503
sa(dp2080
(g6
g7
tp2081
I106
s(g6
g6
tp2082
I2289
s(g7
g6
tp2083
I99
s(g7
g7
tp2084
I10
sa(dp2085
(g3
g2
tp2086
I1
s(g3
g3
tp2087
I2503
sa(dp2088
(g2
g3
tp2089
I1
s(g2
g2
tp2090
I2503
sa(dp2091
(g3
g2
tp2092
I1
s(g2
g2
tp2093
I2503
sa(dp2094
(g7
g6
tp2095
I2
s(g7
g7
tp2096
I2502
sa(dp2097
(g2
g3
tp2098
I1
s(g2
g2
tp2099
I2503
sa(dp2100
(g2
g6
tp2101
I312
s(g6
g6
tp2102
I1786
s(g6
g2
tp2103
I319
s(g2
g2
tp2104
I87
sa(dp2105
(g7
g2
tp2106
I1
s(g7
g7
tp2107
I2503
sa(dp2108
(g6
g7
tp2109
I2
s(g6
g6
tp2110
I1
s(g7
g7
tp2111
I2501
sa(dp2112
(g7
g6
tp2113
I1
s(g7
g7
tp2114
I2503
sa(dp2115
(g2
g3
tp2116
I1
s(g3
g2
tp2117
I2
s(g3
g3
tp2118
I2501
sa(dp2119
(g6
g7
tp2120
I1
s(g7
g7
tp2121
I2503
sa(dp2122
(g7
g7
tp2123
I1
s(g2
g7
tp2124
I19
s(g7
g2
tp2125
I20
s(g2
g2
tp2126
I2464
sa(dp2127
(g2
g3
tp2128
I1
s(g3
g3
tp2129
I2503
sa(dp2130
(g6
g7
tp2131
I428
s(g6
g6
tp2132
I1533
s(g7
g6
tp2133
I402
s(g7
g7
tp2134
I141
sa(dp2135
(g6
g7
tp2136
I5
s(g6
g6
tp2137
I2494
s(g7
g6
tp2138
I4
s(g7
g7
tp2139
I1
sa(dp2140
(g6
g7
tp2141
I3
s(g6
g6
tp2142
I2498
s(g7
g6
tp2143
I3
sa(dp2144
(g2
g6
tp2145
I42
s(g6
g6
tp2146
I1
s(g6
g2
tp2147
I39
s(g2
g2
tp2148
I2422
sa(dp2149
(g6
g7
tp2150
I377
s(g6
g6
tp2151
I1636
s(g7
g6
tp2152
I370
s(g7
g7
tp2153
I121
sa(dp2154
(g6
g7
tp2155
I2
s(g7
g6
tp2156
I1
s(g7
g7
tp2157
I2501
sa(dp2158
(g6
g6
tp2159
I2501
s(g320
g6
tp2160
I3
sa(dp2161
(g3
g2
tp2162
I1
s(g2
g2
tp2163
I2503
sa(dp2164
(g6
g7
tp2165
I1
s(g6
g6
tp2166
I2503
sa(dp2167
(g3
g2
tp2168
I1
s(g2
g2
tp2169
I2503
sa(dp2170
(g3
g2
tp2171
I1
s(g2
g2
tp2172
I2503
sa(dp2173
(g6
g6
tp2174
I2503
s(g7
g6
tp2175
I1
sa(dp2176
(g6
g6
tp2177
I2492
s(g6
g3
tp2178
I8
s(g3
g6
tp2179
I4
sa(dp2180
(g6
g6
tp2181
I145
s(g6
S'AT'
p2182
tp2183
I425
s(S'AT'
p2184
g858
tp2185
I1492
s(g328
g6
tp2186
I442
sa(dp2187
(g2
g3
tp2188
I6
s(g3
g2
tp2189
I5
s(g3
g3
tp2190
I2493
sa(dp2191
(g6
g7
tp2192
I12
s(g6
g6
tp2193
I2483
s(g7
g6
tp2194
I8
s(g7
g7
tp2195
I1
sa(dp2196
(g6
g7
tp2197
I11
s(g6
g6
tp2198
I2481
s(g7
g6
tp2199
I11
s(g7
g7
tp2200
I1
sa(dp2201
(g2
g3
tp2202
I1
s(g3
g3
tp2203
I2503
sa(dp2204
(g2
g6
tp2205
I6
s(g6
g2
tp2206
I17
s(g2
g2
tp2207
I2481
sa(dp2208
(g6
g6
tp2209
I2503
s(g7
g6
tp2210
I1
sa(dp2211
(g2
g3
tp2212
I8
s(g3
g2
tp2213
I11
s(g3
g3
tp2214
I1
s(g2
g2
tp2215
I2484
sa(dp2216
(g2
g3
tp2217
I21
s(g3
g2
tp2218
I21
s(g2
g2
tp2219
I2462
sa(dp2220
(g2
g3
tp2221
I2
s(g3
g2
tp2222
I3
s(g3
g3
tp2223
I2499
sa(dp2224
(g6
g7
tp2225
I511
s(g6
g6
tp2226
I332
s(g7
g6
tp2227
I539
s(g7
g7
tp2228
I1122
sa(dp2229
(g7
g2
tp2230
I1
s(g2
g7
tp2231
I1
s(g7
g7
tp2232
I2502
sa(dp2233
(g6
g7
tp2234
I1
s(g7
g7
tp2235
I2503
sa(dp2236
(g6
g6
tp2237
I2503
s(g7
g6
tp2238
I1
sa(dp2239
(g3
g2
tp2240
I2
s(g3
g3
tp2241
I2502
sa(dp2242
(g2
g3
tp2243
I1
s(g2
g2
tp2244
I2503
sa(dp2245
(g2
g3
tp2246
I15
s(g3
g2
tp2247
I8
s(g3
g3
tp2248
I1
s(g2
g2
tp2249
I2480
sa(dp2250
(g2
g3
tp2251
I1
s(g3
g3
tp2252
I2503
sa(dp2253
(g6
g6
tp2254
I2502
s(g7
g6
tp2255
I2
sa(dp2256
(g3
g2
tp2257
I5
s(g2
g2
tp2258
I2499
sa(dp2259
(g6
g7
tp2260
I2
s(g6
g6
tp2261
I2501
s(g7
g6
tp2262
I1
sa(dp2263
(g2
S'CT'
p2264
tp2265
I728
s(S'CT'
p2266
g880
tp2267
I463
s(g350
g2
tp2268
I840
s(g2
g2
tp2269
I473
sa(dp2270
(g6
g7
tp2271
I17
s(g7
g6
tp2272
I19
s(g7
g7
tp2273
I2468
sa(dp2274
(g2
g3
tp2275
I6
s(g3
g2
tp2276
I5
s(g3
g3
tp2277
I2493
sa(dp2278
(g6
g3
tp2279
I1
s(g3
g3
tp2280
I2503
sa(dp2281
(g2
g3
tp2282
I1
s(g2
g2
tp2283
I2503
sa(dp2284
(g6
g7
tp2285
I1
s(g7
g7
tp2286
I2503
sa(dp2287
(g3
g2
tp2288
I1
s(g2
g2
tp2289
I2503
sa(dp2290
(g2
g3
tp2291
I3
s(g3
g3
tp2292
I2501
sa(dp2293
(g7
g6
tp2294
I1
s(g7
g7
tp2295
I2503
sa(dp2296
(g2
g3
tp2297
I1
s(g3
g3
tp2298
I2503
sa(dp2299
(g3
g2
tp2300
I1
s(g3
g3
tp2301
I2503
sa(dp2302
(g6
g3
tp2303
I1
s(g3
g3
tp2304
I2503
sa(dp2305
(g2
g3
tp2306
I1
s(g3
g3
tp2307
I2503
sa(dp2308
(g2
g6
tp2309
I502
s(g6
g6
tp2310
I316
s(g6
g2
tp2311
I491
s(g2
g2
tp2312
I1195
sa(dp2313
(g2
g3
tp2314
I1
s(g3
g3
tp2315
I2503
sa(dp2316
(g7
g6
tp2317
I1
s(g7
g7
tp2318
I2503
sa(dp2319
(g2
g3
tp2320
I4
s(g3
g2
tp2321
I3
s(g3
g3
tp2322
I2497
sa(dp2323
(g3
g2
tp2324
I1
s(g3
g3
tp2325
I2503
sa(dp2326
(g7
g6
tp2327
I1
s(g7
g7
tp2328
I2503
sa(dp2329
(g6
g7
tp2330
I1
s(g7
g7
tp2331
I2503
sa(dp2332
(g6
g7
tp2333
I1
s(g7
g6
tp2334
I2
s(g7
g7
tp2335
I2501
sa(dp2336
(g2
g2
tp2337
I4
s(g7
g2
tp2338
I40
s(g2
g7
tp2339
I30
s(g7
g7
tp2340
I2430
sa(dp2341
(g6
g6
tp2342
I2503
s(g3
g6
tp2343
I1
sa(dp2344
(g2
g3
tp2345
I1
s(g2
g2
tp2346
I2503
sa(dp2347
(g3
g2
tp2348
I1
s(g3
g3
tp2349
I2503
sa(dp2350
(g6
g6
tp2351
I2503
s(g7
g6
tp2352
I1
sa(dp2353
(g7
g2
tp2354
I1
s(g7
g7
tp2355
I2503
sa(dp2356
(g7
g6
tp2357
I3
s(g7
g7
tp2358
I2501
sa(dp2359
(g2
g3
tp2360
I1
s(g2
g2
tp2361
I2503
sa(dp2362
(g2
g3
tp2363
I1
s(g3
g3
tp2364
I2503
sa(dp2365
(g2
g3
tp2366
I1
s(g2
g2
tp2367
I2503
sa(dp2368
(g7
g2
tp2369
I1
s(g2
g2
tp2370
I2503
sa(dp2371
(g7
g6
tp2372
I1
s(g7
g7
tp2373
I2503
sa(dp2374
(g2
g3
tp2375
I1
s(g2
g2
tp2376
I2503
sa(dp2377
(g2
g3
tp2378
I27
s(g3
g2
tp2379
I27
s(g3
g3
tp2380
I1
s(g2
g2
tp2381
I2449
sa(dp2382
(g2
g3
tp2383
I1
s(g3
g3
tp2384
I2503
sa(dp2385
(g2
g7
tp2386
I1
s(g2
g2
tp2387
I2503
sa(dp2388
(g6
g7
tp2389
I4
s(g6
g6
tp2390
I2492
s(g7
g6
tp2391
I7
s(g7
g7
tp2392
I1
sa(dp2393
(g7
g6
tp2394
I2
s(g7
g7
tp2395
I2502
sa(dp2396
(g2
g3
tp2397
I526
s(g3
g2
tp2398
I542
s(g3
g3
tp2399
I1079
s(g2
g2
tp2400
I357
sa(dp2401
(g6
g6
tp2402
I2503
s(g7
g6
tp2403
I1
sa(dp2404
(g2
g3
tp2405
I3
s(g3
g2
tp2406
I4
s(g3
g3
tp2407
I2497
sa(dp2408
(g2
g3
tp2409
I1
s(g2
g2
tp2410
I2503
sa(dp2411
(g6
g7
tp2412
I3
s(g6
g6
tp2413
I2498
s(g7
g6
tp2414
I3
sa(dp2415
(g6
g7
tp2416
I2
s(g7
g6
tp2417
I6
s(g7
g7
tp2418
I2496
sa(dp2419
(g2
g6
tp2420
I1
s(g2
g2
tp2421
I2503
sa(dp2422
(g3
g2
tp2423
I1
s(g2
g2
tp2424
I2503
sa(dp2425
(g3
g2
tp2426
I8
s(g2
g2
tp2427
I2496
sa(dp2428
(g2
g6
tp2429
I2
s(g6
g2
tp2430
I1
s(g2
g2
tp2431
I2501
sa(dp2432
(g6
g6
tp2433
I2503
s(g7
g6
tp2434
I1
sa(dp2435
(g6
g3
tp2436
I2
s(g3
g3
tp2437
I2502
sa(dp2438
(g2
g3
tp2439
I1
s(g3
g3
tp2440
I2503
sa(dp2441
(g3
g2
tp2442
I1
s(g3
g3
tp2443
I2503
sa(dp2444
(g6
g7
tp2445
I504
s(g6
g6
tp2446
I1160
s(g7
g6
tp2447
I500
s(g7
g7
tp2448
I340
sa(dp2449
(g2
g3
tp2450
I1
s(g3
g3
tp2451
I2503
sa(dp2452
(g2
g3
tp2453
I1
s(g2
g2
tp2454
I2503
sa(dp2455
(g2
g3
tp2456
I1
s(g3
g2
tp2457
I1
s(g2
g2
tp2458
I2502
sa(dp2459
(g2
g3
tp2460
I1
s(g3
g3
tp2461
I2503
sa(dp2462
(g2
g3
tp2463
I2
s(g3
g2
tp2464
I6
s(g2
g2
tp2465
I2496
sa(dp2466
(g6
g7
tp2467
I1
s(g7
g6
tp2468
I1
s(g7
g7
tp2469
I2502
sa(dp2470
(g2
g3
tp2471
I2
s(g3
g2
tp2472
I1
s(g3
g3
tp2473
I2501
sa(dp2474
(g3
g7
tp2475
I1
s(g3
g3
tp2476
I2503
sa(dp2477
(g2
g3
tp2478
I1
s(g2
g2
tp2479
I2503
sa(dp2480
(g2
g3
tp2481
I1
s(g3
g2
tp2482
I1
s(g3
g3
tp2483
I2502
sa(dp2484
(g6
g7
tp2485
I1
s(g6
g6
tp2486
I2503
sa(dp2487
(g6
g7
tp2488
I1
s(g7
g7
tp2489
I2503
sa(dp2490
(g3
g7
tp2491
I1
s(g3
g3
tp2492
I2503
sa(dp2493
(g2
g7
tp2494
I1
s(g7
g7
tp2495
I2503
sa(dp2496
(g3
g2
tp2497
I3
s(g2
g2
tp2498
I2501
sa(dp2499
(g2
g6
tp2500
I1
s(g6
g6
tp2501
I2502
s(g6
g2
tp2502
I1
sa(dp2503
(g6
g7
tp2504
I2
s(g6
g6
tp2505
I2502
sa(dp2506
(g3
g2
tp2507
I1
s(g3
g3
tp2508
I2503
sa(dp2509
(g2
g7
tp2510
I3
s(g7
g2
tp2511
I1
s(g2
g2
tp2512
I2500
sa(dp2513
(g2
g3
tp2514
I522
s(g3
g2
tp2515
I540
s(g3
g3
tp2516
I1090
s(g2
g2
tp2517
I352
sa(dp2518
(g2
g3
tp2519
I1
s(g3
g2
tp2520
I1
s(g2
g2
tp2521
I2502
sa(dp2522
(g2
g6
tp2523
I1
s(g6
g6
tp2524
I2503
sa(dp2525
(g6
g7
tp2526
I1
s(g7
g7
tp2527
I2503
sa(dp2528
(g6
g7
tp2529
I2
s(g7
g6
tp2530
I2
s(g7
g7
tp2531
I2500
sa(dp2532
(g2
g3
tp2533
I23
s(g3
g2
tp2534
I23
s(g3
g3
tp2535
I2456
s(g2
g2
tp2536
I2
sa(dp2537
(g2
g3
tp2538
I1
s(g3
g3
tp2539
I2503
sa(dp2540
(g7
g6
tp2541
I3
s(g7
g7
tp2542
I2501
sa(dp2543
(g2
g3
tp2544
I1
s(g3
g3
tp2545
I2503
sa(dp2546
(g2
g3
tp2547
I1
s(g3
g3
tp2548
I2503
sa(dp2549
(g2
g3
tp2550
I25
s(g3
g2
tp2551
I22
s(g3
g3
tp2552
I1
s(g2
g2
tp2553
I2456
sa(dp2554
(g2
g3
tp2555
I499
s(g3
g2
tp2556
I506
s(g3
g3
tp2557
I1161
s(g2
g2
tp2558
I338
sa(dp2559
(g2
g3
tp2560
I2
s(g3
g2
tp2561
I2
s(g2
g2
tp2562
I2500
sa(dp2563
(g2
g3
tp2564
I2
s(g3
g2
tp2565
I1
s(g2
g2
tp2566
I2501
sa(dp2567
(g2
g3
tp2568
I2
s(g3
g3
tp2569
I2502
sa(dp2570
(g6
g6
tp2571
I2503
s(g7
g6
tp2572
I1
sa(dp2573
(g2
g3
tp2574
I1
s(g3
g3
tp2575
I2503
sa(dp2576
(g2
g3
tp2577
I5
s(g3
g2
tp2578
I6
s(g3
g3
tp2579
I2493
sa(dp2580
(g3
g7
tp2581
I1
s(g3
g3
tp2582
I2503
sa(dp2583
(g3
g2
tp2584
I1
s(g3
g3
tp2585
I2503
sa(dp2586
(g2
g3
tp2587
I1
s(g3
g2
tp2588
I2
s(g3
g3
tp2589
I2501
sa(dp2590
(g6
g7
tp2591
I467
s(g6
g6
tp2592
I881
s(g7
g6
tp2593
I495
s(g7
g7
tp2594
I661
sa(dp2595
(g3
g2
tp2596
I1
s(g3
g3
tp2597
I2503
sa(dp2598
(g6
g7
tp2599
I8
s(g6
g6
tp2600
I2489
s(g7
g6
tp2601
I7
sa(dp2602
(g6
g7
tp2603
I3
s(g7
g6
tp2604
I8
s(g7
g7
tp2605
I2493
sa(dp2606
(g3
g3
tp2607
I2503
s(g7
g3
tp2608
I1
sa(dp2609
(g3
g7
tp2610
I1
s(g7
g7
tp2611
I2503
sa(dp2612
(g2
g3
tp2613
I22
s(g3
g2
tp2614
I26
s(g3
g3
tp2615
I2454
s(g2
g2
tp2616
I2
sa(dp2617
(g2
g7
tp2618
I1
s(g7
g7
tp2619
I2503
sa(dp2620
(g2
g3
tp2621
I1
s(g3
g2
tp2622
I1
s(g3
g3
tp2623
I2502
sa(dp2624
(g6
g7
tp2625
I1
s(g7
g7
tp2626
I2503
sa(dp2627
(g6
g7
tp2628
I506
s(g6
g6
tp2629
I1160
s(g7
g6
tp2630
I503
s(g7
g7
tp2631
I335
sa(dp2632
(g3
g2
tp2633
I1
s(g2
g2
tp2634
I2503
sa(dp2635
(g3
g3
tp2636
I2503
s(g3
g6
tp2637
I1
sa(dp2638
(g6
g7
tp2639
I2
s(g6
g6
tp2640
I2501
s(g7
g6
tp2641
I1
sa(dp2642
(g2
g3
tp2643
I2
s(g3
g2
tp2644
I8
s(g3
g3
tp2645
I2494
sa(dp2646
(g2
g3
tp2647
I1
s(g3
g3
tp2648
I2503
sa(dp2649
(g3
g2
tp2650
I1
s(g3
g3
tp2651
I2503
sa(dp2652
(g2
g3
tp2653
I3
s(g3
g2
tp2654
I5
s(g3
g3
tp2655
I2496
sa(dp2656
(g6
g7
tp2657
I486
s(g6
g6
tp2658
I349
s(g7
g6
tp2659
I501
s(g7
g7
tp2660
I1168
sa(dp2661
(g2
g3
tp2662
I79
s(g3
g2
tp2663
I75
s(g3
g3
tp2664
I7
s(g2
g2
tp2665
I2343
sa(dp2666
(g7
g6
tp2667
I1
s(g7
g7
tp2668
I2503
sa(dp2669
(g3
g3
tp2670
I2503
s(g7
g3
tp2671
I1
sa(dp2672
(g2
g3
tp2673
I2
s(g2
g2
tp2674
I2502
sa(dp2675
(g6
g6
tp2676
I2503
s(g7
g6
tp2677
I1
sa(dp2678
(g3
g2
tp2679
I2
s(g3
g3
tp2680
I2502
sa(dp2681
(g2
g3
tp2682
I20
s(g3
g2
tp2683
I10
s(g3
g3
tp2684
I2473
s(g2
g2
tp2685
I1
sa(dp2686
(S'TAGA'
p2687
g3
tp2688
I5
s(g471
g1001
tp2689
I2498
s(g3
S'TAGA'
p2690
tp2691
I1
sa(dp2692
(g2
g3
tp2693
I1
s(g3
g3
tp2694
I2503
sa(dp2695
(g6
g7
tp2696
I1
s(g7
g6
tp2697
I1
s(g7
g7
tp2698
I2502
sa(dp2699
(g7
g6
tp2700
I1
s(g7
g7
tp2701
I2503
sa(dp2702
(g2
g3
tp2703
I1
s(g3
g3
tp2704
I2503
sa(dp2705
(g6
g6
tp2706
I2503
s(g7
g6
tp2707
I1
sa(dp2708
(g3
g3
tp2709
I2503
s(g7
g3
tp2710
I1
sa(dp2711
(g7
g6
tp2712
I1
s(g7
g7
tp2713
I2503
sa(dp2714
(g6
g7
tp2715
I2
s(g6
g6
tp2716
I2502
sa(dp2717
(g2
g3
tp2718
I1
s(g2
g2
tp2719
I2503
sa(dp2720
(g7
g6
tp2721
I1
s(g7
g7
tp2722
I2503
sa(dp2723
(g2
g6
tp2724
I1
s(g2
g2
tp2725
I2503
sa(dp2726
(g6
g6
tp2727
I2503
s(g7
g6
tp2728
I1
sa(dp2729
(g2
g3
tp2730
I1
s(g3
g2
tp2731
I2
s(g3
g3
tp2732
I2501
sa(dp2733
(g2
g3
tp2734
I1
s(g2
g2
tp2735
I2503
sa(dp2736
(g7
g6
tp2737
I2
s(g7
g7
tp2738
I2502
sa(dp2739
(g6
g7
tp2740
I1
s(g7
g7
tp2741
I2503
sa(dp2742
(g6
g7
tp2743
I1
s(g6
g6
tp2744
I2503
sa(dp2745
(g2
g6
tp2746
I1
s(g6
g6
tp2747
I2503
sa(dp2748
(g7
g2
tp2749
I1
s(g2
g2
tp2750
I2503
sa(dp2751
(g2
g6
tp2752
I6
s(g6
g6
tp2753
I2491
s(g6
g2
tp2754
I7
sa(dp2755
(g2
g3
tp2756
I54
s(g3
g2
tp2757
I51
s(g3
g3
tp2758
I2397
s(g2
g2
tp2759
I2
sa(dp2760
(g3
g2
tp2761
I1
s(g2
g2
tp2762
I2503
sa(dp2763
(g2
g3
tp2764
I1
s(g2
g2
tp2765
I2503
sa(dp2766
(g2
g3
tp2767
I1
s(g3
g2
tp2768
I2
s(g3
g3
tp2769
I2501
sa(dp2770
(g2
g7
tp2771
I1
s(g2
g2
tp2772
I2503
sa(dp2773
(g3
g2
tp2774
I1
s(g3
g3
tp2775
I2503
sa(dp2776
(g6
g7
tp2777
I2
s(g7
g7
tp2778
I2502
sa(dp2779
(g2
g3
tp2780
I1
s(g3
g2
tp2781
I1
s(g2
g2
tp2782
I2502
sa(dp2783
(g3
g2
tp2784
I1
s(g2
g2
tp2785
I2503
sa(dp2786
(g2
g3
tp2787
I1
s(g2
g2
tp2788
I2503
sa(dp2789
(g6
g6
tp2790
I2503
s(g7
g6
tp2791
I1
sa(dp2792
(g2
g3
tp2793
I3
s(g3
g2
tp2794
I2
s(g2
g2
tp2795
I2499
sa(dp2796
(g2
g6
tp2797
I1
s(g6
g6
tp2798
I2503
sa(dp2799
(g2
g6
tp2800
I1
s(g2
g2
tp2801
I2503
sa(dp2802
(g6
g6
tp2803
I2503
s(g3
g6
tp2804
I1
sa(dp2805
(g7
g6
tp2806
I1
s(g7
g7
tp2807
I2503
sa(dp2808
(g6
g7
tp2809
I1
s(g7
g6
tp2810
I1
s(g7
g7
tp2811
I2502
sa(dp2812
(g2
g3
tp2813
I9
s(g3
g2
tp2814
I2
s(g2
g2
tp2815
I2493
sa(dp2816
(g7
g6
tp2817
I1
s(g7
g7
tp2818
I2503
sa(dp2819
(g3
g7
tp2820
I6
s(g3
g3
tp2821
I1
s(g7
g3
tp2822
I7
s(g7
g7
tp2823
I2490
sa(dp2824
(g2
g3
tp2825
I1
s(g3
g3
tp2826
I2503
sa(dp2827
(g6
g7
tp2828
I1
s(g7
g7
tp2829
I2503
sa(dp2830
(g6
g7
tp2831
I1
s(g7
g7
tp2832
I2503
sa(dp2833
(g2
g6
tp2834
I2
s(g6
g6
tp2835
I2502
sa(dp2836
(g2
g6
tp2837
I1
s(g2
g2
tp2838
I2503
sa(dp2839
(g6
g7
tp2840
I1
s(g7
g7
tp2841
I2503
sa(dp2842
(g2
g3
tp2843
I31
s(g3
g2
tp2844
I28
s(g3
g3
tp2845
I2
s(g2
g2
tp2846
I2443
sa(dp2847
(g3
g7
tp2848
I1
s(g7
g7
tp2849
I2503
sa(dp2850
(g6
g7
tp2851
I1
s(g7
g7
tp2852
I2503
sa(dp2853
(g3
g2
tp2854
I1
s(g2
g2
tp2855
I2503
sa(dp2856
(g6
g7
tp2857
I5
s(g7
g6
tp2858
I3
s(g7
g7
tp2859
I2496
sa(dp2860
(g6
g7
tp2861
I1
s(g6
g6
tp2862
I2503
sa(dp2863
(g6
g7
tp2864
I1
s(g7
g7
tp2865
I2503
sa(dp2866
(g7
g2
tp2867
I1
s(g7
g7
tp2868
I2503
sa(dp2869
(g2
g3
tp2870
I1
s(g2
g2
tp2871
I2503
sa(dp2872
(g6
g2
tp2873
I1
s(g2
g2
tp2874
I2503
sa(dp2875
(g6
g7
tp2876
I1
s(g7
g7
tp2877
I2503
sa(dp2878
(g7
g6
tp2879
I1
s(g7
g7
tp2880
I2503
sa(dp2881
(g2
g6
tp2882
I1
s(g2
g2
tp2883
I2503
sa(dp2884
(g6
g7
tp2885
I4
s(g7
g7
tp2886
I2500
sa(dp2887
(g6
g7
tp2888
I16
s(g6
g6
tp2889
I2479
s(g7
g6
tp2890
I8
s(g7
g7
tp2891
I1
sa(dp2892
(g6
g6
tp2893
I2503
s(g7
g6
tp2894
I1
sa(dp2895
(g3
g3
tp2896
I2503
s(g7
g3
tp2897
I1
satp2898
.