((lp0
F0.9952076677316294
aF0.9876198083067093
aF0.9868210862619808
aF0.985223642172524
aF0.9840255591054313
aF0.9840255591054313
aF0.9840255591054313
aF0.9840255591054313
aF0.9840255591054313
aF0.9836261980830671
aF0.9836261980830671
a(lp1
I525
aI37
aI29
aI26
aI25
aI24
aI24
aI24
aI21
aI20
aI20
atp2
.