((lp0
F0.8550319488817891
aF0.6721246006389776
aF0.6174121405750799
aF0.5810702875399361
aF0.5646964856230032
aF0.5587060702875399
aF0.5587060702875399
aF0.5587060702875399
aF0.5355431309904153
aF0.5355431309904153
aF0.5355431309904153
a(lp1
I515
aI28
aI20
aI17
aI16
aI15
aI15
aI15
aI14
aI14
aI14
atp2
.