((lp0
F0.9916134185303515
aF0.9752396166134185
aF0.9680511182108626
aF0.9660543130990416
aF0.9624600638977636
aF0.9624600638977636
aF0.9624600638977636
aF0.9624600638977636
aF0.9628594249201278
aF0.9612619808306709
aF0.9612619808306709
a(lp1
I513
aI25
aI17
aI14
aI13
aI12
aI12
aI12
aI12
aI11
aI11
atp2
.