((lp0
F0.8450479233226837
aF0.6473642172523961
aF0.579073482428115
aF0.5395367412140575
aF0.5075878594249201
aF0.5007987220447284
aF0.5007987220447284
aF0.5007987220447284
aF0.5035942492012779
aF0.4748402555910543
aF0.4748402555910543
a(lp1
I513
aI25
aI17
aI14
aI13
aI12
aI12
aI12
aI12
aI11
aI11
atp2
.